
C:/Users/henvill1/project/fluid_simulator.axf:     file format elf32-littlearm


Disassembly of section .vectors:

00000000 <__cs3_interrupt_vector>:
   0:	18 f0 9f e5 18 f0 9f e5 18 f0 9f e5 18 f0 9f e5     ................
  10:	18 f0 9f e5 18 f0 9f e5 18 f0 9f e5 18 f0 9f e5     ................
  20:	40 00 00 00 74 08 00 00 78 08 00 00 7c 08 00 00     @...t...x...|...
  30:	80 08 00 00 30 95 00 00 c0 3c 00 00 84 08 00 00     ....0....<......

Disassembly of section .text:

00000040 <__cs3_reset>:
      40:	ea000026 	b	e0 <__cs3_start_asm_sim>

00000044 <__cs3_start_c>:
      44:	e59f608c 	ldr	r6, [pc, #140]	; d8 <__cs3_start_c+0x94>
      48:	e3560000 	cmp	r6, #0
      4c:	e92d4080 	push	{r7, lr}
      50:	e2466001 	sub	r6, r6, #1
      54:	0a00001e 	beq	d4 <__cs3_start_c+0x90>
      58:	e59f507c 	ldr	r5, [pc, #124]	; dc <__cs3_start_c+0x98>
      5c:	e3a00000 	mov	r0, #0
      60:	e3a01000 	mov	r1, #0
      64:	e515200c 	ldr	r2, [r5, #-12]
      68:	e515e010 	ldr	lr, [r5, #-16]
      6c:	e5154008 	ldr	r4, [r5, #-8]
      70:	e15e0002 	cmp	lr, r2
      74:	00822004 	addeq	r2, r2, r4
      78:	0a000009 	beq	a4 <__cs3_start_c+0x60>
      7c:	e3540000 	cmp	r4, #0
      80:	0a000007 	beq	a4 <__cs3_start_c+0x60>
      84:	e1a07002 	mov	r7, r2
      88:	e1a0c002 	mov	r12, r2
      8c:	e8be000c 	ldm	lr!, {r2, r3}
      90:	e8ac000c 	stmia	r12!, {r2, r3}
      94:	e067300c 	rsb	r3, r7, r12
      98:	e1540003 	cmp	r4, r3
      9c:	e1a0200c 	mov	r2, r12
      a0:	1afffff9 	bne	8c <__cs3_start_c+0x48>
      a4:	e515e004 	ldr	lr, [r5, #-4]
      a8:	e35e0000 	cmp	lr, #0
      ac:	11a03002 	movne	r3, r2
      b0:	0a000003 	beq	c4 <__cs3_start_c+0x80>
      b4:	e8a30003 	stmia	r3!, {r0, r1}
      b8:	e062c003 	rsb	r12, r2, r3
      bc:	e15e000c 	cmp	lr, r12
      c0:	1afffffb 	bne	b4 <__cs3_start_c+0x70>
      c4:	e2466001 	sub	r6, r6, #1
      c8:	e3760001 	cmn	r6, #1
      cc:	e2855014 	add	r5, r5, #20
      d0:	1affffe3 	bne	64 <__cs3_start_c+0x20>
      d4:	eb0024fc 	bl	94cc <__cs3_premain>
      d8:	00000001 	.word	0x00000001
      dc:	00009880 	.word	0x00009880

000000e0 <__cs3_start_asm_sim>:
      e0:	e28f103c 	add	r1, pc, #60	; 0x3c
      e4:	e3a00016 	mov	r0, #22
      e8:	ef123456 	svc	0x00123456
      ec:	e3500000 	cmp	r0, #0
      f0:	ba000008 	blt	118 <__cs3_start_asm_sim+0x38>
      f4:	e59f2028 	ldr	r2, [pc, #40]	; 124 <__cs3_heap_start_ptr>
      f8:	e59fd01c 	ldr	sp, [pc, #28]	; 11c <__cs3_start_asm_sim+0x3c>
      fc:	e5920008 	ldr	r0, [r2, #8]
     100:	e3500000 	cmp	r0, #0
     104:	11a0d000 	movne	sp, r0
     108:	e59f1010 	ldr	r1, [pc, #16]	; 120 <__cs3_start_asm_sim+0x40>
     10c:	e5920004 	ldr	r0, [r2, #4]
     110:	e3500000 	cmp	r0, #0
     114:	15810000 	strne	r0, [r1]
     118:	eaffffc9 	b	44 <__cs3_start_c>
     11c:	3ffffff8 	.word	0x3ffffff8
     120:	00009e28 	.word	0x00009e28

00000124 <__cs3_heap_start_ptr>:
     124:	001341b8 	.word	0x001341b8

00000128 <_start>:
     128:	e51fd000 	ldr	sp, [pc, #-0]	; 130 <_start+0x8>
     12c:	eaffffc4 	b	44 <__cs3_start_c>
     130:	3ffffff8 	.word	0x3ffffff8

00000134 <deregister_tm_clones>:
     134:	e92d4008 	push	{r3, lr}
     138:	e59f002c 	ldr	r0, [pc, #44]	; 16c <deregister_tm_clones+0x38>
     13c:	e59f302c 	ldr	r3, [pc, #44]	; 170 <deregister_tm_clones+0x3c>
     140:	e0603003 	rsb	r3, r0, r3
     144:	e3530006 	cmp	r3, #6
     148:	8a000001 	bhi	154 <deregister_tm_clones+0x20>
     14c:	e8bd4008 	pop	{r3, lr}
     150:	e12fff1e 	bx	lr
     154:	e59f3018 	ldr	r3, [pc, #24]	; 174 <deregister_tm_clones+0x40>
     158:	e3530000 	cmp	r3, #0
     15c:	0afffffa 	beq	14c <deregister_tm_clones+0x18>
     160:	e1a0e00f 	mov	lr, pc
     164:	e12fff13 	bx	r3
     168:	eafffff7 	b	14c <deregister_tm_clones+0x18>
     16c:	00009e30 	.word	0x00009e30
     170:	00009e33 	.word	0x00009e33
     174:	00000000 	.word	0x00000000

00000178 <register_tm_clones>:
     178:	e92d4008 	push	{r3, lr}
     17c:	e59f0034 	ldr	r0, [pc, #52]	; 1b8 <register_tm_clones+0x40>
     180:	e59f3034 	ldr	r3, [pc, #52]	; 1bc <register_tm_clones+0x44>
     184:	e0603003 	rsb	r3, r0, r3
     188:	e1a03143 	asr	r3, r3, #2
     18c:	e0833fa3 	add	r3, r3, r3, lsr #31
     190:	e1b010c3 	asrs	r1, r3, #1
     194:	1a000001 	bne	1a0 <register_tm_clones+0x28>
     198:	e8bd4008 	pop	{r3, lr}
     19c:	e12fff1e 	bx	lr
     1a0:	e59f2018 	ldr	r2, [pc, #24]	; 1c0 <register_tm_clones+0x48>
     1a4:	e3520000 	cmp	r2, #0
     1a8:	0afffffa 	beq	198 <register_tm_clones+0x20>
     1ac:	e1a0e00f 	mov	lr, pc
     1b0:	e12fff12 	bx	r2
     1b4:	eafffff7 	b	198 <register_tm_clones+0x20>
     1b8:	00009e30 	.word	0x00009e30
     1bc:	00009e30 	.word	0x00009e30
     1c0:	00000000 	.word	0x00000000

000001c4 <__do_global_dtors_aux>:
     1c4:	e92d4010 	push	{r4, lr}
     1c8:	e59f402c 	ldr	r4, [pc, #44]	; 1fc <__do_global_dtors_aux+0x38>
     1cc:	e5d43000 	ldrb	r3, [r4]
     1d0:	e3530000 	cmp	r3, #0
     1d4:	1a000006 	bne	1f4 <__do_global_dtors_aux+0x30>
     1d8:	ebffffd5 	bl	134 <deregister_tm_clones>
     1dc:	e59f301c 	ldr	r3, [pc, #28]	; 200 <__do_global_dtors_aux+0x3c>
     1e0:	e3530000 	cmp	r3, #0
     1e4:	159f0018 	ldrne	r0, [pc, #24]	; 204 <__do_global_dtors_aux+0x40>
     1e8:	1320f000 	nopne	{0}
     1ec:	e3a03001 	mov	r3, #1
     1f0:	e5c43000 	strb	r3, [r4]
     1f4:	e8bd4010 	pop	{r4, lr}
     1f8:	e12fff1e 	bx	lr
     1fc:	00009e30 	.word	0x00009e30
     200:	00000000 	.word	0x00000000
     204:	000095bc 	.word	0x000095bc

00000208 <frame_dummy>:
     208:	e92d4008 	push	{r3, lr}
     20c:	e59f3034 	ldr	r3, [pc, #52]	; 248 <frame_dummy+0x40>
     210:	e3530000 	cmp	r3, #0
     214:	159f0030 	ldrne	r0, [pc, #48]	; 24c <frame_dummy+0x44>
     218:	159f1030 	ldrne	r1, [pc, #48]	; 250 <frame_dummy+0x48>
     21c:	1320f000 	nopne	{0}
     220:	e59f002c 	ldr	r0, [pc, #44]	; 254 <frame_dummy+0x4c>
     224:	e5903000 	ldr	r3, [r0]
     228:	e3530000 	cmp	r3, #0
     22c:	0a000003 	beq	240 <frame_dummy+0x38>
     230:	e59f3020 	ldr	r3, [pc, #32]	; 258 <frame_dummy+0x50>
     234:	e3530000 	cmp	r3, #0
     238:	11a0e00f 	movne	lr, pc
     23c:	112fff13 	bxne	r3
     240:	e8bd4008 	pop	{r3, lr}
     244:	eaffffcb 	b	178 <register_tm_clones>
     248:	00000000 	.word	0x00000000
     24c:	000095bc 	.word	0x000095bc
     250:	00009e34 	.word	0x00009e34
     254:	00009880 	.word	0x00009880
     258:	00000000 	.word	0x00000000

0000025c <hueToRGB565>:
	return 0;
	
}

// Function to convert a hue to an R(5)G(6)B(5) bit scheme
short int hueToRGB565(float hue) {
     25c:	e92d4070 	push	{r4, r5, r6, lr}
     260:	e1a04000 	mov	r4, r0

    if (hue<0.0) hue = 0.0;
     264:	e3a01000 	mov	r1, #0
     268:	eb00237b 	bl	905c <__aeabi_fcmplt>
     26c:	e3500000 	cmp	r0, #0
     270:	1a000046 	bne	390 <hueToRGB565+0x134>
    if (hue>1.0) hue = 1.0;
     274:	e1a00004 	mov	r0, r4
     278:	e3a015fe 	mov	r1, #1065353216	; 0x3f800000
     27c:	eb002388 	bl	90a4 <__aeabi_fcmpgt>
     280:	e3500000 	cmp	r0, #0
    int sector = floor(hue * 6);

    // Calculate the fractional part to transition
    float f = hue * 6 - sector;
    // Invert the fractional part in some cases
    float nf = 1 - f;
     284:	13a005fe 	movne	r0, #1065353216	; 0x3f800000

// Function to convert a hue to an R(5)G(6)B(5) bit scheme
short int hueToRGB565(float hue) {

    if (hue<0.0) hue = 0.0;
    if (hue>1.0) hue = 1.0;
     288:	1a000027 	bne	32c <hueToRGB565+0xd0>
    // Declare variables to store red, green, and blue components (initially floats for calculations)
    float r, g, b;

    // Calculate the sector of the color wheel (shown in the case statement below)
    int sector = floor(hue * 6);
     28c:	e1a00004 	mov	r0, r4
     290:	e3a01000 	mov	r1, #0
     294:	e34410c0 	movt	r1, #16576	; 0x40c0
     298:	eb002284 	bl	8cb0 <__aeabi_fmul>
     29c:	e1a05000 	mov	r5, r0
     2a0:	eb001ff3 	bl	8274 <__aeabi_f2d>
     2a4:	eb000f39 	bl	3f90 <floor>
     2a8:	eb002196 	bl	8908 <__aeabi_d2iz>
     2ac:	e1a04000 	mov	r4, r0

    // Calculate the fractional part to transition
    float f = hue * 6 - sector;
     2b0:	eb002247 	bl	8bd4 <__aeabi_i2f>
     2b4:	e1a01000 	mov	r1, r0
     2b8:	e1a00005 	mov	r0, r5
     2bc:	eb0021d2 	bl	8a0c <__aeabi_fsub>
     2c0:	e1a05000 	mov	r5, r0
    // Invert the fractional part in some cases
    float nf = 1 - f;
     2c4:	e3a005fe 	mov	r0, #1065353216	; 0x3f800000
     2c8:	e1a01005 	mov	r1, r5
     2cc:	eb0021ce 	bl	8a0c <__aeabi_fsub>

    // Determine the RGB values based on the sector
    switch (sector) {
     2d0:	e3540004 	cmp	r4, #4
     2d4:	979ff104 	ldrls	pc, [pc, r4, lsl #2]
     2d8:	ea000013 	b	32c <hueToRGB565+0xd0>
     2dc:	000002f0 	.word	0x000002f0
     2e0:	0000033c 	.word	0x0000033c
     2e4:	00000300 	.word	0x00000300
     2e8:	0000030c 	.word	0x0000030c
     2ec:	0000031c 	.word	0x0000031c
    int sector = floor(hue * 6);

    // Calculate the fractional part to transition
    float f = hue * 6 - sector;
    // Invert the fractional part in some cases
    float nf = 1 - f;
     2f0:	e1a06005 	mov	r6, r5

    // Determine the RGB values based on the sector
    switch (sector) {
        case 0:  // Red
            r = 1.0; g = f; b = 0.0; break;
     2f4:	e3a05000 	mov	r5, #0
     2f8:	e3a005fe 	mov	r0, #1065353216	; 0x3f800000
     2fc:	ea000010 	b	344 <hueToRGB565+0xe8>
        case 1:  // Red -> Green
            r = nf; g = 1.0; b = 0.0; break;
        case 2:  // Green
            r = 0.0; g = 1.0; b = f; break;
     300:	e3a065fe 	mov	r6, #1065353216	; 0x3f800000
     304:	e3a00000 	mov	r0, #0
     308:	ea00000d 	b	344 <hueToRGB565+0xe8>
    int sector = floor(hue * 6);

    // Calculate the fractional part to transition
    float f = hue * 6 - sector;
    // Invert the fractional part in some cases
    float nf = 1 - f;
     30c:	e1a06000 	mov	r6, r0
        case 1:  // Red -> Green
            r = nf; g = 1.0; b = 0.0; break;
        case 2:  // Green
            r = 0.0; g = 1.0; b = f; break;
        case 3:  // Green -> Blue
            r = 0.0; g = nf; b = 1.0; break;
     310:	e3a055fe 	mov	r5, #1065353216	; 0x3f800000
     314:	e3a00000 	mov	r0, #0
     318:	ea000009 	b	344 <hueToRGB565+0xe8>

    // Calculate the sector of the color wheel (shown in the case statement below)
    int sector = floor(hue * 6);

    // Calculate the fractional part to transition
    float f = hue * 6 - sector;
     31c:	e1a00005 	mov	r0, r5
        case 2:  // Green
            r = 0.0; g = 1.0; b = f; break;
        case 3:  // Green -> Blue
            r = 0.0; g = nf; b = 1.0; break;
        case 4:  // Blue
            r = f; g = 0.0; b = 1.0; break;
     320:	e3a055fe 	mov	r5, #1065353216	; 0x3f800000
     324:	e3a06000 	mov	r6, #0
     328:	ea000005 	b	344 <hueToRGB565+0xe8>
        default: // Blue -> Red
            r = 1.0; g = 0.0; b = nf; break;
     32c:	e1a05000 	mov	r5, r0
     330:	e3a06000 	mov	r6, #0
     334:	e3a005fe 	mov	r0, #1065353216	; 0x3f800000
     338:	ea000001 	b	344 <hueToRGB565+0xe8>
    // Determine the RGB values based on the sector
    switch (sector) {
        case 0:  // Red
            r = 1.0; g = f; b = 0.0; break;
        case 1:  // Red -> Green
            r = nf; g = 1.0; b = 0.0; break;
     33c:	e3a05000 	mov	r5, #0
     340:	e3a065fe 	mov	r6, #1065353216	; 0x3f800000
        default: // Blue -> Red
            r = 1.0; g = 0.0; b = nf; break;
    }

    // Scale the RGB values to fit 5, 6, 5 bit col channels
    r *= 31;
     344:	e3a01000 	mov	r1, #0
     348:	e34411f8 	movt	r1, #16888	; 0x41f8
     34c:	eb002257 	bl	8cb0 <__aeabi_fmul>
    g *= 63;
    b *= 31;

    // Combine the RGB values into a single RGB565 value
    return ((int)r << 11) | ((int)g << 5) | (int)b;
     350:	eb002359 	bl	90bc <__aeabi_f2iz>
     354:	e1a04580 	lsl	r4, r0, #11
            r = 1.0; g = 0.0; b = nf; break;
    }

    // Scale the RGB values to fit 5, 6, 5 bit col channels
    r *= 31;
    g *= 63;
     358:	e1a00006 	mov	r0, r6
     35c:	e3a01000 	mov	r1, #0
     360:	e344127c 	movt	r1, #17020	; 0x427c
     364:	eb002251 	bl	8cb0 <__aeabi_fmul>
    b *= 31;

    // Combine the RGB values into a single RGB565 value
    return ((int)r << 11) | ((int)g << 5) | (int)b;
     368:	eb002353 	bl	90bc <__aeabi_f2iz>
     36c:	e1844280 	orr	r4, r4, r0, lsl #5
    }

    // Scale the RGB values to fit 5, 6, 5 bit col channels
    r *= 31;
    g *= 63;
    b *= 31;
     370:	e1a00005 	mov	r0, r5
     374:	e3a01000 	mov	r1, #0
     378:	e34411f8 	movt	r1, #16888	; 0x41f8
     37c:	eb00224b 	bl	8cb0 <__aeabi_fmul>

    // Combine the RGB values into a single RGB565 value
    return ((int)r << 11) | ((int)g << 5) | (int)b;
     380:	eb00234d 	bl	90bc <__aeabi_f2iz>
     384:	e1840000 	orr	r0, r4, r0
     388:	e6bf0070 	sxth	r0, r0
     38c:	e8bd8070 	pop	{r4, r5, r6, pc}
    if (hue>1.0) hue = 1.0;
    // Declare variables to store red, green, and blue components (initially floats for calculations)
    float r, g, b;

    // Calculate the sector of the color wheel (shown in the case statement below)
    int sector = floor(hue * 6);
     390:	e3a00000 	mov	r0, #0
     394:	e3a01000 	mov	r1, #0
     398:	eb00215a 	bl	8908 <__aeabi_d2iz>

    // Calculate the fractional part to transition
    float f = hue * 6 - sector;
     39c:	eb00220c 	bl	8bd4 <__aeabi_i2f>
     3a0:	e1a05000 	mov	r5, r0
     3a4:	eaffffd1 	b	2f0 <hueToRGB565+0x94>

000003a8 <abs>:

// Finds the absolue value of an int
int abs(int in){
	if (in>0) return in;
	return (0-in);
}
     3a8:	e3500000 	cmp	r0, #0
     3ac:	b2600000 	rsblt	r0, r0, #0
     3b0:	e12fff1e 	bx	lr

000003b4 <swap>:

// Swaps two ints
void swap(int *a, int*b){
	int temp = *a;
     3b4:	e5903000 	ldr	r3, [r0]
	*a = *b;
     3b8:	e5912000 	ldr	r2, [r1]
     3bc:	e5802000 	str	r2, [r0]
	*b = temp;
     3c0:	e5813000 	str	r3, [r1]
     3c4:	e12fff1e 	bx	lr

000003c8 <waitForVsync>:
}

void waitForVsync(){

	volatile int *vgaCtlPtr = (volatile int*)VGA_CONTROLLER_BASE;
	*vgaCtlPtr = 1; // 1->Front Buffer Address. Kickstarts our swap/rendering process
     3c8:	e3033fff 	movw	r3, #16383	; 0x3fff
     3cc:	e34f3f20 	movt	r3, #65312	; 0xff20
     3d0:	e3a02001 	mov	r2, #1
     3d4:	e5032fdf 	str	r2, [r3, #-4063]	; 0xfffff021
	
	// Poll status bit for a 0
	while ((*(vgaCtlPtr + 3) & 0x01)!=0);
     3d8:	e3032fff 	movw	r2, #16383	; 0x3fff
     3dc:	e34f2f20 	movt	r2, #65312	; 0xff20
     3e0:	e5123fd3 	ldr	r3, [r2, #-4051]	; 0xfffff02d
     3e4:	e3130001 	tst	r3, #1
     3e8:	1afffffc 	bne	3e0 <waitForVsync+0x18>
		
}
     3ec:	e12fff1e 	bx	lr

000003f0 <drawIndividualPixel>:

// Draws just one pixel to the appropriate frame buffer.
void drawIndividualPixel(int x, int y, short int colour){
	volatile short int *pixelAddress;
	pixelAddress = (volatile short int *) (CURRENT_BACK_BUFFER_ADDRESS + (y << 10) + (x << 1)); 
     3f0:	e3093e4c 	movw	r3, #40524	; 0x9e4c
     3f4:	e3403000 	movt	r3, #0
     3f8:	e5933000 	ldr	r3, [r3]
     3fc:	e0831501 	add	r1, r3, r1, lsl #10
     400:	e1a00080 	lsl	r0, r0, #1
	*pixelAddress = colour;
     404:	e18120b0 	strh	r2, [r1, r0]
     408:	e12fff1e 	bx	lr

0000040c <clearWholeScreen>:
}

// Writes black to every pixel in the pixel buffer
void clearWholeScreen(){
     40c:	e92d4070 	push	{r4, r5, r6, lr}
	
	for(int x = 0; x < MAX_X; x++){ // 320px
     410:	e3a05000 	mov	r5, #0
	pixelAddress = (volatile short int *) (CURRENT_BACK_BUFFER_ADDRESS + (y << 10) + (x << 1)); 
	*pixelAddress = colour;
}

// Writes black to every pixel in the pixel buffer
void clearWholeScreen(){
     414:	e1a06005 	mov	r6, r5
     418:	ea000009 	b	444 <clearWholeScreen+0x38>
	
	for(int x = 0; x < MAX_X; x++){ // 320px
		for(int y = 0; y < MAX_Y; y++) { // by 240px
			drawIndividualPixel(x, y, 0); // draw a black pixel
     41c:	e1a00005 	mov	r0, r5
     420:	e1a01004 	mov	r1, r4
     424:	e1a02006 	mov	r2, r6
     428:	ebfffff0 	bl	3f0 <drawIndividualPixel>

// Writes black to every pixel in the pixel buffer
void clearWholeScreen(){
	
	for(int x = 0; x < MAX_X; x++){ // 320px
		for(int y = 0; y < MAX_Y; y++) { // by 240px
     42c:	e2844001 	add	r4, r4, #1
     430:	e35400f0 	cmp	r4, #240	; 0xf0
     434:	1afffff8 	bne	41c <clearWholeScreen+0x10>
}

// Writes black to every pixel in the pixel buffer
void clearWholeScreen(){
	
	for(int x = 0; x < MAX_X; x++){ // 320px
     438:	e2855001 	add	r5, r5, #1
     43c:	e3550d05 	cmp	r5, #320	; 0x140
     440:	08bd8070 	popeq	{r4, r5, r6, pc}
	pixelAddress = (volatile short int *) (CURRENT_BACK_BUFFER_ADDRESS + (y << 10) + (x << 1)); 
	*pixelAddress = colour;
}

// Writes black to every pixel in the pixel buffer
void clearWholeScreen(){
     444:	e1a04006 	mov	r4, r6
     448:	eafffff3 	b	41c <clearWholeScreen+0x10>

0000044c <vgaSetup>:

// Global telling us the starting address of the Pixel Buffer
int CURRENT_BACK_BUFFER_ADDRESS;

// Setup the vga Display for drawing to the back buffer.
int vgaSetup(void) {
     44c:	e92d4008 	push	{r3, lr}
	
	waitForVsync();
     450:	ebffffdc 	bl	3c8 <waitForVsync>

	volatile int *vgaCtlPtr = (volatile int *)VGA_CONTROLLER_BASE;
	CURRENT_BACK_BUFFER_ADDRESS = *vgaCtlPtr;
     454:	e3033fff 	movw	r3, #16383	; 0x3fff
     458:	e34f3f20 	movt	r3, #65312	; 0xff20
     45c:	e5132fdf 	ldr	r2, [r3, #-4063]	; 0xfffff021
     460:	e3093e4c 	movw	r3, #40524	; 0x9e4c
     464:	e3403000 	movt	r3, #0
     468:	e5832000 	str	r2, [r3]
	
	clearWholeScreen();
     46c:	ebffffe6 	bl	40c <clearWholeScreen>
	
	return 0;
	
}
     470:	e3a00000 	mov	r0, #0
     474:	e8bd8008 	pop	{r3, pc}

00000478 <drawBox>:
	}

}

// Draws a nxn box centered at the pixel x,y
void drawBox(int x, int y, short int colour){
     478:	e92d47f0 	push	{r4, r5, r6, r7, r8, r9, r10, lr}
     47c:	e1a08002 	mov	r8, r2
     480:	e3a05003 	mov	r5, #3
     484:	e3a09000 	mov	r9, #0
     488:	e280a002 	add	r10, r0, #2
     48c:	e2417001 	sub	r7, r1, #1
     490:	ea000008 	b	4b8 <drawBox+0x40>
	int n = 3;
	int shift = floor(n/2);
	for(int i = 0; i < n; i++){
		for(int j = 0; j < n; j++){
			drawIndividualPixel(x+(i-shift), y+(j-shift), colour);
     494:	e1a00006 	mov	r0, r6
     498:	e0871004 	add	r1, r7, r4
     49c:	e1a02008 	mov	r2, r8
     4a0:	ebffffd2 	bl	3f0 <drawIndividualPixel>
// Draws a nxn box centered at the pixel x,y
void drawBox(int x, int y, short int colour){
	int n = 3;
	int shift = floor(n/2);
	for(int i = 0; i < n; i++){
		for(int j = 0; j < n; j++){
     4a4:	e2844001 	add	r4, r4, #1
     4a8:	e3540003 	cmp	r4, #3
     4ac:	1afffff8 	bne	494 <drawBox+0x1c>

// Draws a nxn box centered at the pixel x,y
void drawBox(int x, int y, short int colour){
	int n = 3;
	int shift = floor(n/2);
	for(int i = 0; i < n; i++){
     4b0:	e2555001 	subs	r5, r5, #1
     4b4:	08bd87f0 	popeq	{r4, r5, r6, r7, r8, r9, r10, pc}
	}

}

// Draws a nxn box centered at the pixel x,y
void drawBox(int x, int y, short int colour){
     4b8:	e1a04009 	mov	r4, r9
     4bc:	e065600a 	rsb	r6, r5, r10
     4c0:	eafffff3 	b	494 <drawBox+0x1c>

000004c4 <drawBresenhamLine>:
			drawIndividualPixel(x+(i-shift), y+(j-shift), colour);
		}
	}
}
// Draws a line between the two points specified on screen. 
void drawBresenhamLine(int x0, int y0, int x1, int y1, short int colour){
     4c4:	e92d4ff0 	push	{r4, r5, r6, r7, r8, r9, r10, r11, lr}
     4c8:	e24dd014 	sub	sp, sp, #20
     4cc:	e58d000c 	str	r0, [sp, #12]
     4d0:	e58d1008 	str	r1, [sp, #8]
     4d4:	e58d2004 	str	r2, [sp, #4]
     4d8:	e58d3000 	str	r3, [sp]
     4dc:	e1dda3f8 	ldrsh	r10, [sp, #56]	; 0x38
	
	bool isSteep = abs(x0-x1) < abs(y0-y1);
     4e0:	e0622000 	rsb	r2, r2, r0
     4e4:	e3520000 	cmp	r2, #0
     4e8:	b2622000 	rsblt	r2, r2, #0
     4ec:	e0633001 	rsb	r3, r3, r1
     4f0:	e0237fc3 	eor	r7, r3, r3, asr #31
     4f4:	e0477fc3 	sub	r7, r7, r3, asr #31
     4f8:	e1520007 	cmp	r2, r7
     4fc:	a3a07000 	movge	r7, #0
     500:	b3a07001 	movlt	r7, #1
	
	if(isSteep){
     504:	e3570000 	cmp	r7, #0
     508:	0a000005 	beq	524 <drawBresenhamLine+0x60>
		swap(&x0, &y0);
     50c:	e28d000c 	add	r0, sp, #12
     510:	e28d1008 	add	r1, sp, #8
     514:	ebffffa6 	bl	3b4 <swap>
		swap(&x1, &y1);
     518:	e28d0004 	add	r0, sp, #4
     51c:	e1a0100d 	mov	r1, sp
     520:	ebffffa3 	bl	3b4 <swap>
	}
	if(x0>x1){
     524:	e59d3004 	ldr	r3, [sp, #4]
     528:	e59d200c 	ldr	r2, [sp, #12]
     52c:	e1520003 	cmp	r2, r3
     530:	da000005 	ble	54c <drawBresenhamLine+0x88>
		swap(&x0, &x1);
     534:	e28d000c 	add	r0, sp, #12
     538:	e28d1004 	add	r1, sp, #4
     53c:	ebffff9c 	bl	3b4 <swap>
		swap(&y0, &y1);
     540:	e28d0008 	add	r0, sp, #8
     544:	e1a0100d 	mov	r1, sp
     548:	ebffff99 	bl	3b4 <swap>
	}
	
	int dx = x1 - x0;
     54c:	e59d3004 	ldr	r3, [sp, #4]
     550:	e59d500c 	ldr	r5, [sp, #12]
     554:	e0659003 	rsb	r9, r5, r3
	int dy = abs(y1 - y0);
     558:	e59d2000 	ldr	r2, [sp]
     55c:	e59d6008 	ldr	r6, [sp, #8]
     560:	e0668002 	rsb	r8, r6, r2
     564:	e3580000 	cmp	r8, #0
     568:	b2688000 	rsblt	r8, r8, #0
	int error = -dx/2;
     56c:	e2694000 	rsb	r4, r9, #0
     570:	e0844fa4 	add	r4, r4, r4, lsr #31
     574:	e1a040c4 	asr	r4, r4, #1
	
	int moveY = y1>y0 ? 1 : -1;
     578:	e1520006 	cmp	r2, r6
     57c:	d3e0b000 	mvnle	r11, #0
     580:	c3a0b001 	movgt	r11, #1
	
	int y = y0;
	int x = x0;
	
	while(x<=x1) {
     584:	e1530005 	cmp	r3, r5
     588:	ba00000e 	blt	5c8 <drawBresenhamLine+0x104>
		
		if (isSteep) drawIndividualPixel(y,x, colour);
     58c:	e3570000 	cmp	r7, #0
     590:	11a00006 	movne	r0, r6
     594:	11a01005 	movne	r1, r5
		else drawIndividualPixel(x,y,colour);
     598:	01a00005 	moveq	r0, r5
     59c:	01a01006 	moveq	r1, r6
     5a0:	e1a0200a 	mov	r2, r10
     5a4:	ebffff91 	bl	3f0 <drawIndividualPixel>
		
		error = error + dy;
     5a8:	e0844008 	add	r4, r4, r8
		if (error > 0){
     5ac:	e3540000 	cmp	r4, #0
			y = y + moveY;
     5b0:	c086600b 	addgt	r6, r6, r11
			error = error - dx;
     5b4:	c0694004 	rsbgt	r4, r9, r4
		}
		
		x++;
     5b8:	e2855001 	add	r5, r5, #1
	int moveY = y1>y0 ? 1 : -1;
	
	int y = y0;
	int x = x0;
	
	while(x<=x1) {
     5bc:	e59d3004 	ldr	r3, [sp, #4]
     5c0:	e1530005 	cmp	r3, r5
     5c4:	aafffff0 	bge	58c <drawBresenhamLine+0xc8>
		
		x++;
		
	}

}
     5c8:	e28dd014 	add	sp, sp, #20
     5cc:	e8bd8ff0 	pop	{r4, r5, r6, r7, r8, r9, r10, r11, pc}

000005d0 <updateMouse>:
} mouseData;

mouseData mData;
mouseData prevmData;

void updateMouse() {
     5d0:	e24dd008 	sub	sp, sp, #8
  int PS2_data, RVALID;
  signed char inputData[3];

  int i = 0;
  while(!i){
    PS2_data = *(PS2_ptr);
     5d4:	e3a03000 	mov	r3, #0
     5d8:	e34f3f20 	movt	r3, #65312	; 0xff20
     5dc:	e5933100 	ldr	r3, [r3, #256]	; 0x100
    RVALID = PS2_data & 0x8000;
    if(RVALID){
     5e0:	e3130902 	tst	r3, #32768	; 0x8000
     5e4:	1a000004 	bne	5fc <updateMouse+0x2c>
  int PS2_data, RVALID;
  signed char inputData[3];

  int i = 0;
  while(!i){
    PS2_data = *(PS2_ptr);
     5e8:	e3a02000 	mov	r2, #0
     5ec:	e34f2f20 	movt	r2, #65312	; 0xff20
     5f0:	e5923100 	ldr	r3, [r2, #256]	; 0x100
    RVALID = PS2_data & 0x8000;
    if(RVALID){
     5f4:	e3130902 	tst	r3, #32768	; 0x8000
     5f8:	0afffffc 	beq	5f0 <updateMouse+0x20>
      inputData[0] = PS2_data & 0xFF;
     5fc:	e28d2008 	add	r2, sp, #8
     600:	e5623004 	strb	r3, [r2, #-4]!
} mouseData;

mouseData mData;
mouseData prevmData;

void updateMouse() {
     604:	e28d0006 	add	r0, sp, #6
      i++;
    }
  }

  while(i < 3){
    PS2_data = *(PS2_ptr);
     608:	e3a03000 	mov	r3, #0
     60c:	e34f3f20 	movt	r3, #65312	; 0xff20
     610:	ea000003 	b	624 <updateMouse+0x54>
     614:	e5931100 	ldr	r1, [r3, #256]	; 0x100
    RVALID = PS2_data & 0x8000;
    if(RVALID){
     618:	e3110902 	tst	r1, #32768	; 0x8000
     61c:	0afffffc 	beq	614 <updateMouse+0x44>
      inputData[i] = PS2_data & 0xFF;
     620:	e5e21001 	strb	r1, [r2, #1]!
      inputData[0] = PS2_data & 0xFF;
      i++;
    }
  }

  while(i < 3){
     624:	e1520000 	cmp	r2, r0
     628:	0a000003 	beq	63c <updateMouse+0x6c>
    PS2_data = *(PS2_ptr);
     62c:	e5931100 	ldr	r1, [r3, #256]	; 0x100
    RVALID = PS2_data & 0x8000;
    if(RVALID){
     630:	e3110902 	tst	r1, #32768	; 0x8000
     634:	0afffff6 	beq	614 <updateMouse+0x44>
     638:	eafffff8 	b	620 <updateMouse+0x50>
      inputData[i] = PS2_data & 0xFF;
      i++;
    }
  }

  mData.left = inputData[0] & 1;
     63c:	e5dd2004 	ldrb	r2, [sp, #4]
     640:	e3093e4c 	movw	r3, #40524	; 0x9e4c
     644:	e3403000 	movt	r3, #0
     648:	e2021001 	and	r1, r2, #1
     64c:	e5c3100c 	strb	r1, [r3, #12]
  mData.middle = inputData[0] & 4;
     650:	e6ef2072 	uxtb	r2, r2
     654:	e7e01152 	ubfx	r1, r2, #2, #1
     658:	e5c3100e 	strb	r1, [r3, #14]
  mData.right = inputData[0] & 2;
     65c:	e7e020d2 	ubfx	r2, r2, #1, #1
     660:	e5c3200d 	strb	r2, [r3, #13]

  mData.x += inputData[1];
     664:	e1dd10d5 	ldrsb	r1, [sp, #5]
     668:	e5932004 	ldr	r2, [r3, #4]
     66c:	e0811002 	add	r1, r1, r2
     670:	e5831004 	str	r1, [r3, #4]
  mData.y -= inputData[2];
     674:	e1dd20d6 	ldrsb	r2, [sp, #6]
     678:	e5930008 	ldr	r0, [r3, #8]
     67c:	e0622000 	rsb	r2, r2, r0
     680:	e5832008 	str	r2, [r3, #8]

  if (mData.x >= MAX_X) mData.x = MAX_X - 1;
     684:	e3510d05 	cmp	r1, #320	; 0x140
     688:	a3093e4c 	movwge	r3, #40524	; 0x9e4c
     68c:	a3403000 	movtge	r3, #0
     690:	a300113f 	movwge	r1, #319	; 0x13f
     694:	a5831004 	strge	r1, [r3, #4]
  if (mData.y >= MAX_Y) mData.y = MAX_Y - 1;
     698:	e35200ef 	cmp	r2, #239	; 0xef
     69c:	c3093e4c 	movwgt	r3, #40524	; 0x9e4c
     6a0:	c3403000 	movtgt	r3, #0
     6a4:	c3a020ef 	movgt	r2, #239	; 0xef
     6a8:	c5832008 	strgt	r2, [r3, #8]

  if (mData.x < 0) mData.x = 0;
     6ac:	e3093e4c 	movw	r3, #40524	; 0x9e4c
     6b0:	e3403000 	movt	r3, #0
     6b4:	e5933004 	ldr	r3, [r3, #4]
     6b8:	e3530000 	cmp	r3, #0
     6bc:	b3093e4c 	movwlt	r3, #40524	; 0x9e4c
     6c0:	b3403000 	movtlt	r3, #0
     6c4:	b3a02000 	movlt	r2, #0
     6c8:	b5832004 	strlt	r2, [r3, #4]
  if (mData.y < 0) mData.y = 0;
     6cc:	e3093e4c 	movw	r3, #40524	; 0x9e4c
     6d0:	e3403000 	movt	r3, #0
     6d4:	e5933008 	ldr	r3, [r3, #8]
     6d8:	e3530000 	cmp	r3, #0
     6dc:	b3093e4c 	movwlt	r3, #40524	; 0x9e4c
     6e0:	b3403000 	movtlt	r3, #0
     6e4:	b3a02000 	movlt	r2, #0
     6e8:	b5832008 	strlt	r2, [r3, #8]
  
}
     6ec:	e28dd008 	add	sp, sp, #8
     6f0:	e12fff1e 	bx	lr

000006f4 <drawMouse>:

void drawMouse(mouseData *data, short int colour) {
     6f4:	e92d4ff0 	push	{r4, r5, r6, r7, r8, r9, r10, r11, lr}
     6f8:	e24dd01c 	sub	sp, sp, #28
     6fc:	e58d0010 	str	r0, [sp, #16]
     700:	e1a05001 	mov	r5, r1
    
    int x = data -> x;
     704:	e5903000 	ldr	r3, [r0]
    int y = data -> y;
     708:	e5908004 	ldr	r8, [r0, #4]

    if(x<MOUSE_RADIUS) x=MOUSE_RADIUS;
     70c:	e3530001 	cmp	r3, #1
     710:	d3a03002 	movle	r3, #2
     714:	da000003 	ble	728 <drawMouse+0x34>
     718:	e300213d 	movw	r2, #317	; 0x13d
     71c:	e1530002 	cmp	r3, r2
     720:	a1a03002 	movge	r3, r2
     724:	eaffffff 	b	728 <drawMouse+0x34>
    else if (x>MAX_X-1-MOUSE_RADIUS) x = MAX_X-1-MOUSE_RADIUS;
    if(y<MOUSE_RADIUS) y=MOUSE_RADIUS;
     728:	e3580001 	cmp	r8, #1
     72c:	d3a08002 	movle	r8, #2
     730:	da000002 	ble	740 <drawMouse+0x4c>
     734:	e35800ed 	cmp	r8, #237	; 0xed
     738:	a3a080ed 	movge	r8, #237	; 0xed
     73c:	eaffffff 	b	740 <drawMouse+0x4c>
  if (mData.x < 0) mData.x = 0;
  if (mData.y < 0) mData.y = 0;
  
}

void drawMouse(mouseData *data, short int colour) {
     740:	e2434001 	sub	r4, r3, #1
     744:	e58d3014 	str	r3, [sp, #20]
     748:	e283b002 	add	r11, r3, #2
    else if (x>MAX_X-1-MOUSE_RADIUS) x = MAX_X-1-MOUSE_RADIUS;
    if(y<MOUSE_RADIUS) y=MOUSE_RADIUS;
    else if (y>MAX_Y-1-MOUSE_RADIUS) y = MAX_Y-1-MOUSE_RADIUS;

    for(int i = -1; i<2; i++) {
        drawIndividualPixel(x + i, y + MOUSE_RADIUS, colour);
     74c:	e2889002 	add	r9, r8, #2
        drawIndividualPixel(x + i, y - MOUSE_RADIUS, colour);
     750:	e2482002 	sub	r2, r8, #2
     754:	e58d2004 	str	r2, [sp, #4]
  if (mData.x < 0) mData.x = 0;
  if (mData.y < 0) mData.y = 0;
  
}

void drawMouse(mouseData *data, short int colour) {
     758:	e063a008 	rsb	r10, r3, r8
    else if (y>MAX_Y-1-MOUSE_RADIUS) y = MAX_Y-1-MOUSE_RADIUS;

    for(int i = -1; i<2; i++) {
        drawIndividualPixel(x + i, y + MOUSE_RADIUS, colour);
        drawIndividualPixel(x + i, y - MOUSE_RADIUS, colour);
        drawIndividualPixel(x + MOUSE_RADIUS, y + i, colour);
     75c:	e58db008 	str	r11, [sp, #8]
        drawIndividualPixel(x - MOUSE_RADIUS, y + i, colour);
     760:	e2433002 	sub	r3, r3, #2
     764:	e58d300c 	str	r3, [sp, #12]
    else if (x>MAX_X-1-MOUSE_RADIUS) x = MAX_X-1-MOUSE_RADIUS;
    if(y<MOUSE_RADIUS) y=MOUSE_RADIUS;
    else if (y>MAX_Y-1-MOUSE_RADIUS) y = MAX_Y-1-MOUSE_RADIUS;

    for(int i = -1; i<2; i++) {
        drawIndividualPixel(x + i, y + MOUSE_RADIUS, colour);
     768:	e1a00004 	mov	r0, r4
     76c:	e1a01009 	mov	r1, r9
     770:	e1a02005 	mov	r2, r5
     774:	ebffff1d 	bl	3f0 <drawIndividualPixel>
        drawIndividualPixel(x + i, y - MOUSE_RADIUS, colour);
     778:	e1a00004 	mov	r0, r4
     77c:	e59d1004 	ldr	r1, [sp, #4]
     780:	e1a02005 	mov	r2, r5
     784:	ebffff19 	bl	3f0 <drawIndividualPixel>
  if (mData.x < 0) mData.x = 0;
  if (mData.y < 0) mData.y = 0;
  
}

void drawMouse(mouseData *data, short int colour) {
     788:	e1a07008 	mov	r7, r8
     78c:	e08a6004 	add	r6, r10, r4
    else if (y>MAX_Y-1-MOUSE_RADIUS) y = MAX_Y-1-MOUSE_RADIUS;

    for(int i = -1; i<2; i++) {
        drawIndividualPixel(x + i, y + MOUSE_RADIUS, colour);
        drawIndividualPixel(x + i, y - MOUSE_RADIUS, colour);
        drawIndividualPixel(x + MOUSE_RADIUS, y + i, colour);
     790:	e59d0008 	ldr	r0, [sp, #8]
     794:	e1a01006 	mov	r1, r6
     798:	e1a02005 	mov	r2, r5
     79c:	ebffff13 	bl	3f0 <drawIndividualPixel>
        drawIndividualPixel(x - MOUSE_RADIUS, y + i, colour);
     7a0:	e59d000c 	ldr	r0, [sp, #12]
     7a4:	e1a01006 	mov	r1, r6
     7a8:	e1a02005 	mov	r2, r5
     7ac:	ebffff0f 	bl	3f0 <drawIndividualPixel>
     7b0:	e2844001 	add	r4, r4, #1
    if(x<MOUSE_RADIUS) x=MOUSE_RADIUS;
    else if (x>MAX_X-1-MOUSE_RADIUS) x = MAX_X-1-MOUSE_RADIUS;
    if(y<MOUSE_RADIUS) y=MOUSE_RADIUS;
    else if (y>MAX_Y-1-MOUSE_RADIUS) y = MAX_Y-1-MOUSE_RADIUS;

    for(int i = -1; i<2; i++) {
     7b4:	e154000b 	cmp	r4, r11
     7b8:	1affffea 	bne	768 <drawMouse+0x74>
        drawIndividualPixel(x + i, y + MOUSE_RADIUS, colour);
        drawIndividualPixel(x + i, y - MOUSE_RADIUS, colour);
        drawIndividualPixel(x + MOUSE_RADIUS, y + i, colour);
        drawIndividualPixel(x - MOUSE_RADIUS, y + i, colour);
    }
    if(data -> left){
     7bc:	e59d2010 	ldr	r2, [sp, #16]
     7c0:	e5d23008 	ldrb	r3, [r2, #8]
     7c4:	e3530000 	cmp	r3, #0
     7c8:	1a00000b 	bne	7fc <drawMouse+0x108>
     7cc:	ea000010 	b	814 <drawMouse+0x120>
      for(int i = -1; i < 2; i++) {
        for(int j = -1; j < 2; j++){
          drawIndividualPixel(x + i, y+j, colour);
     7d0:	e1a00008 	mov	r0, r8
     7d4:	e0841007 	add	r1, r4, r7
     7d8:	e1a02005 	mov	r2, r5
     7dc:	ebffff03 	bl	3f0 <drawIndividualPixel>
        drawIndividualPixel(x + MOUSE_RADIUS, y + i, colour);
        drawIndividualPixel(x - MOUSE_RADIUS, y + i, colour);
    }
    if(data -> left){
      for(int i = -1; i < 2; i++) {
        for(int j = -1; j < 2; j++){
     7e0:	e2844001 	add	r4, r4, #1
     7e4:	e3540002 	cmp	r4, #2
     7e8:	1afffff8 	bne	7d0 <drawMouse+0xdc>
        drawIndividualPixel(x + i, y - MOUSE_RADIUS, colour);
        drawIndividualPixel(x + MOUSE_RADIUS, y + i, colour);
        drawIndividualPixel(x - MOUSE_RADIUS, y + i, colour);
    }
    if(data -> left){
      for(int i = -1; i < 2; i++) {
     7ec:	e2866001 	add	r6, r6, #1
     7f0:	e3560002 	cmp	r6, #2
     7f4:	1a000003 	bne	808 <drawMouse+0x114>
     7f8:	ea000005 	b	814 <drawMouse+0x120>
        drawIndividualPixel(x + i, y + MOUSE_RADIUS, colour);
        drawIndividualPixel(x + i, y - MOUSE_RADIUS, colour);
        drawIndividualPixel(x + MOUSE_RADIUS, y + i, colour);
        drawIndividualPixel(x - MOUSE_RADIUS, y + i, colour);
    }
    if(data -> left){
     7fc:	e3e06000 	mvn	r6, #0
    int x = data -> x;
    int y = data -> y;

    if(x<MOUSE_RADIUS) x=MOUSE_RADIUS;
    else if (x>MAX_X-1-MOUSE_RADIUS) x = MAX_X-1-MOUSE_RADIUS;
    if(y<MOUSE_RADIUS) y=MOUSE_RADIUS;
     800:	e1a0a006 	mov	r10, r6
     804:	e59d9014 	ldr	r9, [sp, #20]
     808:	e1a0400a 	mov	r4, r10
  if (mData.x < 0) mData.x = 0;
  if (mData.y < 0) mData.y = 0;
  
}

void drawMouse(mouseData *data, short int colour) {
     80c:	e0868009 	add	r8, r6, r9
     810:	eaffffee 	b	7d0 <drawMouse+0xdc>
          drawIndividualPixel(x + i, y+j, colour);
        }
      }
    }
    
}
     814:	e28dd01c 	add	sp, sp, #28
     818:	e8bd8ff0 	pop	{r4, r5, r6, r7, r8, r9, r10, r11, pc}

0000081c <setA9stack>:

void setA9stack(){
  int stack,mode;
  stack = 0xFFFFFFFF - 7;
  mode = 0b11010010;
  __asm__ volatile ("msr cpsr, %0":: "r"(mode));
     81c:	e3a030d2 	mov	r3, #210	; 0xd2
     820:	e129f003 	msr	CPSR_fc, r3
  __asm__ volatile ("mov sp, %0":: "r"(stack));
     824:	e3e03007 	mvn	r3, #7
     828:	e1a0d003 	mov	sp, r3

  mode = 0b11010011;
  __asm__ volatile("msr cpsr, %0":: "r"(mode));
     82c:	e3a030d3 	mov	r3, #211	; 0xd3
     830:	e129f003 	msr	CPSR_fc, r3
     834:	e12fff1e 	bx	lr

00000838 <enableInterrupt>:
}

void enableInterrupt(){
  int status = 0b01010011;
  __asm__ volatile("msr cpsr, %0":: "r"(status));
     838:	e3a03053 	mov	r3, #83	; 0x53
     83c:	e129f003 	msr	CPSR_fc, r3
     840:	e12fff1e 	bx	lr

00000844 <configGIC>:
}

void configGIC(){
  *((volatile int*) 0xFFFED84C) = 0x01000000;
     844:	e3e03a12 	mvn	r3, #73728	; 0x12000
     848:	e3a02401 	mov	r2, #16777216	; 0x1000000
     84c:	e50327b3 	str	r2, [r3, #-1971]	; 0xfffff84d
  *((volatile int*) 0xFFFED108) = 0x00008000;
     850:	e3a02902 	mov	r2, #32768	; 0x8000
     854:	e5032ef7 	str	r2, [r3, #-3831]	; 0xfffff109

// all priority interupts enbaled
  *((volatile int*) 0xFFFEC104) = 0xFFFF;
     858:	e3e01a13 	mvn	r1, #77824	; 0x13000
     85c:	e30f2fff 	movw	r2, #65535	; 0xffff
     860:	e5012efb 	str	r2, [r1, #-3835]	; 0xfffff105

  *((volatile int*) 0xFFFEC100) = 1;
     864:	e3a02001 	mov	r2, #1
     868:	e5012eff 	str	r2, [r1, #-3839]	; 0xfffff101

  *((volatile int*) 0xFFFED000) = 1;
     86c:	e5032fff 	str	r2, [r3, #-4095]	; 0xfffff001
     870:	e12fff1e 	bx	lr

00000874 <__cs3_isr_undef>:

  *((volatile int*) 0xFFFEC110) = interruptID;
  return;
}

void __attribute__ ((interrupt)) __cs3_isr_undef(void){while(1);}
     874:	eafffffe 	b	874 <__cs3_isr_undef>

00000878 <__cs3_isr_swi>:

void __attribute__ ((interrupt)) __cs3_isr_swi(void){while(1);}
     878:	eafffffe 	b	878 <__cs3_isr_swi>

0000087c <__cs3_isr_pabort>:

void __attribute__ ((interrupt)) __cs3_isr_pabort(void){while(1);}
     87c:	eafffffe 	b	87c <__cs3_isr_pabort>

00000880 <__cs3_isr_dabort>:

void __attribute__ ((interrupt)) __cs3_isr_dabort(void){while(1);}
     880:	eafffffe 	b	880 <__cs3_isr_dabort>

00000884 <__cs3_isr_fiq>:

void __attribute__ ((interrupt)) __cs3_isr_fiq(void){while(1);}
     884:	eafffffe 	b	884 <__cs3_isr_fiq>

00000888 <intializeMouse>:

void intializeMouse() {
     888:	e92d4010 	push	{r4, lr}
  volatile int * PS2_ptr = (volatile int *)0xFF200100;
  int PS2_data, RVALID;
  char byte1 = 0, byte2 = 0;

  mData.x = MAX_X / 2;
     88c:	e3093e4c 	movw	r3, #40524	; 0x9e4c
     890:	e3403000 	movt	r3, #0
     894:	e3a020a0 	mov	r2, #160	; 0xa0
     898:	e5832004 	str	r2, [r3, #4]
  mData.y = MAX_Y / 2;
     89c:	e3a02078 	mov	r2, #120	; 0x78
     8a0:	e5832008 	str	r2, [r3, #8]

  mData.left = false;
     8a4:	e3a04000 	mov	r4, #0
     8a8:	e5c3400c 	strb	r4, [r3, #12]
  mData.middle = false;
     8ac:	e5c3400e 	strb	r4, [r3, #14]
  mData.right = false;
     8b0:	e5c3400d 	strb	r4, [r3, #13]

  setA9stack();
     8b4:	ebffffd8 	bl	81c <setA9stack>

  configGIC();
     8b8:	ebffffe1 	bl	844 <configGIC>

  // PS/2 mouse needs to be reset (must be already plugged in)
  *(PS2_ptr) = 0xFF; // reset
     8bc:	e1a03004 	mov	r3, r4
     8c0:	e34f3f20 	movt	r3, #65312	; 0xff20
     8c4:	e3a020ff 	mov	r2, #255	; 0xff
     8c8:	e5832100 	str	r2, [r3, #256]	; 0x100
void __attribute__ ((interrupt)) __cs3_isr_fiq(void){while(1);}

void intializeMouse() {
  volatile int * PS2_ptr = (volatile int *)0xFF200100;
  int PS2_data, RVALID;
  char byte1 = 0, byte2 = 0;
     8cc:	e1a01004 	mov	r1, r4
     8d0:	e1a02004 	mov	r2, r4
  configGIC();

  // PS/2 mouse needs to be reset (must be already plugged in)
  *(PS2_ptr) = 0xFF; // reset
  while((byte2 != (char) 0xAA) || (byte1 != (char)0x00)){
    PS2_data = *(PS2_ptr);
     8d4:	e1a00004 	mov	r0, r4
     8d8:	e34f0f20 	movt	r0, #65312	; 0xff20

  configGIC();

  // PS/2 mouse needs to be reset (must be already plugged in)
  *(PS2_ptr) = 0xFF; // reset
  while((byte2 != (char) 0xAA) || (byte1 != (char)0x00)){
     8dc:	ea000003 	b	8f0 <intializeMouse+0x68>
    PS2_data = *(PS2_ptr);
     8e0:	e5903100 	ldr	r3, [r0, #256]	; 0x100
    RVALID = PS2_data & 0x8000;
    if(RVALID){
     8e4:	e3130902 	tst	r3, #32768	; 0x8000
      byte2 = byte1;
     8e8:	11a01002 	movne	r1, r2
      byte1 = PS2_data & 0xFF;
     8ec:	16ef2073 	uxtbne	r2, r3

  configGIC();

  // PS/2 mouse needs to be reset (must be already plugged in)
  *(PS2_ptr) = 0xFF; // reset
  while((byte2 != (char) 0xAA) || (byte1 != (char)0x00)){
     8f0:	e35100aa 	cmp	r1, #170	; 0xaa
     8f4:	03520000 	cmpeq	r2, #0
     8f8:	1afffff8 	bne	8e0 <intializeMouse+0x58>
      byte2 = byte1;
      byte1 = PS2_data & 0xFF;
    }
  }

  *(PS2_ptr) = 0xF3;
     8fc:	e3a03000 	mov	r3, #0
     900:	e34f3f20 	movt	r3, #65312	; 0xff20
     904:	e3a020f3 	mov	r2, #243	; 0xf3
     908:	e5832100 	str	r2, [r3, #256]	; 0x100
  byte1 = 0;
  while(byte1 != (char)0xFA){
    PS2_data = *(PS2_ptr);
     90c:	e3a02000 	mov	r2, #0
     910:	e34f2f20 	movt	r2, #65312	; 0xff20
     914:	ea000005 	b	930 <intializeMouse+0xa8>
     918:	e5923100 	ldr	r3, [r2, #256]	; 0x100
    RVALID = PS2_data & 0x8000;
    if(RVALID){
     91c:	e3130902 	tst	r3, #32768	; 0x8000
     920:	0afffffc 	beq	918 <intializeMouse+0x90>
    }
  }

  *(PS2_ptr) = 0xF3;
  byte1 = 0;
  while(byte1 != (char)0xFA){
     924:	e6ef3073 	uxtb	r3, r3
     928:	e35300fa 	cmp	r3, #250	; 0xfa
     92c:	0a000003 	beq	940 <intializeMouse+0xb8>
    PS2_data = *(PS2_ptr);
     930:	e5923100 	ldr	r3, [r2, #256]	; 0x100
    RVALID = PS2_data & 0x8000;
    if(RVALID){
     934:	e3130902 	tst	r3, #32768	; 0x8000
     938:	0afffff6 	beq	918 <intializeMouse+0x90>
     93c:	eafffff8 	b	924 <intializeMouse+0x9c>
      byte1 = PS2_data & 0xFF;
    }
  }

    //SAMPLE RATE
  *(PS2_ptr) = 40;
     940:	e3a03000 	mov	r3, #0
     944:	e34f3f20 	movt	r3, #65312	; 0xff20
     948:	e3a02028 	mov	r2, #40	; 0x28
     94c:	e5832100 	str	r2, [r3, #256]	; 0x100
  byte1 = 0;
  while(byte1 != (char)0xFA){
    PS2_data = *(PS2_ptr);
     950:	e3a02000 	mov	r2, #0
     954:	e34f2f20 	movt	r2, #65312	; 0xff20
     958:	ea000005 	b	974 <intializeMouse+0xec>
     95c:	e5923100 	ldr	r3, [r2, #256]	; 0x100
    RVALID = PS2_data & 0x8000;
    if(RVALID)
     960:	e3130902 	tst	r3, #32768	; 0x8000
     964:	0afffffc 	beq	95c <intializeMouse+0xd4>
  }

    //SAMPLE RATE
  *(PS2_ptr) = 40;
  byte1 = 0;
  while(byte1 != (char)0xFA){
     968:	e6ef3073 	uxtb	r3, r3
     96c:	e35300fa 	cmp	r3, #250	; 0xfa
     970:	0a000003 	beq	984 <intializeMouse+0xfc>
    PS2_data = *(PS2_ptr);
     974:	e5923100 	ldr	r3, [r2, #256]	; 0x100
    RVALID = PS2_data & 0x8000;
    if(RVALID)
     978:	e3130902 	tst	r3, #32768	; 0x8000
     97c:	0afffff6 	beq	95c <intializeMouse+0xd4>
     980:	eafffff8 	b	968 <intializeMouse+0xe0>
      byte1 = PS2_data & 0xFF;
  }

  *(PS2_ptr) = 0xF4;
     984:	e3a03000 	mov	r3, #0
     988:	e34f3f20 	movt	r3, #65312	; 0xff20
     98c:	e3a020f4 	mov	r2, #244	; 0xf4
     990:	e5832100 	str	r2, [r3, #256]	; 0x100
  byte1 = 0;
  while(byte1 != (char)0xFA){
    PS2_data = *(PS2_ptr);
     994:	e3a02000 	mov	r2, #0
     998:	e34f2f20 	movt	r2, #65312	; 0xff20
     99c:	ea000005 	b	9b8 <intializeMouse+0x130>
     9a0:	e5923100 	ldr	r3, [r2, #256]	; 0x100
    RVALID = PS2_data & 0x8000;
    if(RVALID)
     9a4:	e3130902 	tst	r3, #32768	; 0x8000
     9a8:	0afffffc 	beq	9a0 <intializeMouse+0x118>
      byte1 = PS2_data & 0xFF;
  }

  *(PS2_ptr) = 0xF4;
  byte1 = 0;
  while(byte1 != (char)0xFA){
     9ac:	e6ef3073 	uxtb	r3, r3
     9b0:	e35300fa 	cmp	r3, #250	; 0xfa
     9b4:	0a000003 	beq	9c8 <intializeMouse+0x140>
    PS2_data = *(PS2_ptr);
     9b8:	e5923100 	ldr	r3, [r2, #256]	; 0x100
    RVALID = PS2_data & 0x8000;
    if(RVALID)
     9bc:	e3130902 	tst	r3, #32768	; 0x8000
     9c0:	0afffff6 	beq	9a0 <intializeMouse+0x118>
     9c4:	eafffff8 	b	9ac <intializeMouse+0x124>
      byte1 = PS2_data & 0xFF;
  }

  *(PS2_ptr + 1) = 1;
     9c8:	e3a03000 	mov	r3, #0
     9cc:	e34f3f20 	movt	r3, #65312	; 0xff20
     9d0:	e3a02001 	mov	r2, #1
     9d4:	e5832104 	str	r2, [r3, #260]	; 0x104

  enableInterrupt();
     9d8:	ebffff96 	bl	838 <enableInterrupt>
     9dc:	e8bd8010 	pop	{r4, pc}

000009e0 <drawButton>:
                                 0xD6DA, 0xD6DA, 0x001F, 0x001F, 0x001F, 0xD6DA, 0xD6DA, 0xD6DA, 0xD6DA, 0xD6DA, 0xD6DA, 0x001F, 0x001F, 0xD6DA, 0xD6DA, 
                                 0xD6DA, 0xD6DA, 0x001F, 0xD6DA, 0x001F, 0x001F, 0xD6DA, 0xD6DA, 0xD6DA, 0xD6DA, 0x001F, 0x001F, 0xD6DA, 0xD6DA, 0xD6DA, 
                                 0xD6DA, 0xD6DA, 0xD6DA, 0xD6DA, 0xD6DA, 0x001F, 0x001F, 0x001F, 0x001F, 0x001F, 0x001F, 0xD6DA, 0xD6DA, 0xD6DA, 0xD6DA, 
                                 0xD6DA, 0xD6DA, 0xD6DA, 0xD6DA, 0xD6DA, 0xD6DA, 0xD6DA, 0xD6DA, 0xD6DA, 0xD6DA, 0xD6DA, 0xD6DA, 0xD6DA, 0xD6DA, 0xD6DA};

void drawButton(){
     9e0:	e92d45f8 	push	{r3, r4, r5, r6, r7, r8, r10, lr}
     9e4:	e3a06004 	mov	r6, #4
     9e8:	e3e07000 	mvn	r7, #0
     9ec:	e3098888 	movw	r8, #39048	; 0x9888
     9f0:	e3408000 	movt	r8, #0
     9f4:	e300a12d 	movw	r10, #301	; 0x12d
     9f8:	ea00000a 	b	a28 <drawButton+0x48>
  int x = BUTTON_X;
  int y = BUTTON_Y;
  
  for(int i = 0; i < 12; i++){
    for(int j = 0; j < 15; j++){
      drawIndividualPixel(x+j,y+i,switchButton[15*i + j]);
     9fc:	e1a00004 	mov	r0, r4
     a00:	e1a01006 	mov	r1, r6
     a04:	e1f520f2 	ldrsh	r2, [r5, #2]!
     a08:	ebfffe78 	bl	3f0 <drawIndividualPixel>
     a0c:	e2844001 	add	r4, r4, #1
void drawButton(){
  int x = BUTTON_X;
  int y = BUTTON_Y;
  
  for(int i = 0; i < 12; i++){
    for(int j = 0; j < 15; j++){
     a10:	e3540f4f 	cmp	r4, #316	; 0x13c
     a14:	1afffff8 	bne	9fc <drawButton+0x1c>
     a18:	e287700f 	add	r7, r7, #15
     a1c:	e2866001 	add	r6, r6, #1

void drawButton(){
  int x = BUTTON_X;
  int y = BUTTON_Y;
  
  for(int i = 0; i < 12; i++){
     a20:	e35700b3 	cmp	r7, #179	; 0xb3
     a24:	08bd85f8 	popeq	{r3, r4, r5, r6, r7, r8, r10, pc}
                                 0xD6DA, 0xD6DA, 0x001F, 0x001F, 0x001F, 0xD6DA, 0xD6DA, 0xD6DA, 0xD6DA, 0xD6DA, 0xD6DA, 0x001F, 0x001F, 0xD6DA, 0xD6DA, 
                                 0xD6DA, 0xD6DA, 0x001F, 0xD6DA, 0x001F, 0x001F, 0xD6DA, 0xD6DA, 0xD6DA, 0xD6DA, 0x001F, 0x001F, 0xD6DA, 0xD6DA, 0xD6DA, 
                                 0xD6DA, 0xD6DA, 0xD6DA, 0xD6DA, 0xD6DA, 0x001F, 0x001F, 0x001F, 0x001F, 0x001F, 0x001F, 0xD6DA, 0xD6DA, 0xD6DA, 0xD6DA, 
                                 0xD6DA, 0xD6DA, 0xD6DA, 0xD6DA, 0xD6DA, 0xD6DA, 0xD6DA, 0xD6DA, 0xD6DA, 0xD6DA, 0xD6DA, 0xD6DA, 0xD6DA, 0xD6DA, 0xD6DA};

void drawButton(){
     a28:	e0885087 	add	r5, r8, r7, lsl #1
     a2c:	e1a0400a 	mov	r4, r10
     a30:	eafffff1 	b	9fc <drawButton+0x1c>

00000a34 <initParticles>:
} Particle;

Particle allParticles[NUM_PARTICLES];
drawParticle allEraseParticles[NUM_PARTICLES];

void initParticles() {
     a34:	e92d4ff8 	push	{r3, r4, r5, r6, r7, r8, r9, r10, r11, lr}
    int stepX = MAX_X/amtColumns;
    int stepY = MAX_Y/amtRows;
    int initX = stepX/2;
    int initY = stepY/2;

    hpx = (stepX + stepY) / 2.0;
     a38:	e3094e4c 	movw	r4, #40524	; 0x9e4c
     a3c:	e3404000 	movt	r4, #0
     a40:	e3a03011 	mov	r3, #17
     a44:	e5843010 	str	r3, [r4, #16]
    // h = M_PER_PX * (stepX + stepY) / 2.0;
    h = M_PER_PX * H_H;
     a48:	e30c3ccd 	movw	r3, #52429	; 0xcccd
     a4c:	e3433dcc 	movt	r3, #15820	; 0x3dcc
     a50:	e5843014 	str	r3, [r4, #20]

    alpha = 5.0/(14.0*3.14159265*h*h);
     a54:	e30e3430 	movw	r3, #58416	; 0xe430
     a58:	e3443135 	movt	r3, #16693	; 0x4135
     a5c:	e5843018 	str	r3, [r4, #24]
    inv_rho_naught = 1.0/(float)DENSITY_RESTING;
     a60:	e30531c3 	movw	r3, #20931	; 0x51c3
     a64:	e3433921 	movt	r3, #14625	; 0x3921
     a68:	e584301c 	str	r3, [r4, #28]
    nu = h*h/100.0;
     a6c:	e30b3718 	movw	r3, #46872	; 0xb718
     a70:	e34338d1 	movt	r3, #14545	; 0x38d1
     a74:	e5843020 	str	r3, [r4, #32]
     a78:	e2844034 	add	r4, r4, #52	; 0x34
     a7c:	e3a07000 	mov	r7, #0
     a80:	e1a0a007 	mov	r10, r7
    // printf("\ninv density: %f", inv_rho_naught);

    int xStepCount = 0;
    int yStepCount = 0;
	
    for (int i = 0; i < NUM_PARTICLES; i++) {
     a84:	e1a08007 	mov	r8, r7
    // printf("\nh: %f", h);
    // printf("\nalpha: %f", alpha);
    // printf("\ninv density: %f", inv_rho_naught);

    int xStepCount = 0;
    int yStepCount = 0;
     a88:	e1a05007 	mov	r5, r7
    // DEBUG
    // printf("\nh: %f", h);
    // printf("\nalpha: %f", alpha);
    // printf("\ninv density: %f", inv_rho_naught);

    int xStepCount = 0;
     a8c:	e1a06007 	mov	r6, r7
     a90:	ea000046 	b	bb0 <initParticles+0x17c>
    int yStepCount = 0;
	
    for (int i = 0; i < NUM_PARTICLES; i++) {
		
        for(int j = 0; j < NUM_PARTICLES; j++){
            lastSeen[i][j] = -1;
     a94:	e7802003 	str	r2, [r0, r3]
            lastSeen2[i][j] = -1;
     a98:	e7812003 	str	r2, [r1, r3]
     a9c:	e2833004 	add	r3, r3, #4
    int xStepCount = 0;
    int yStepCount = 0;
	
    for (int i = 0; i < NUM_PARTICLES; i++) {
		
        for(int j = 0; j < NUM_PARTICLES; j++){
     aa0:	e3530e32 	cmp	r3, #800	; 0x320
     aa4:	1afffffa 	bne	a94 <initParticles+0x60>
            lastSeen[i][j] = -1;
            lastSeen2[i][j] = -1;
        }
		srand(i);
     aa8:	e1a00008 	mov	r0, r8
     aac:	eb0021b2 	bl	917c <srand>
        if(xStepCount >= amtColumns) {
     ab0:	e3560011 	cmp	r6, #17
            xStepCount = 0;
            yStepCount++;
     ab4:	c2855001 	addgt	r5, r5, #1
            lastSeen[i][j] = -1;
            lastSeen2[i][j] = -1;
        }
		srand(i);
        if(xStepCount >= amtColumns) {
            xStepCount = 0;
     ab8:	c3a06000 	movgt	r6, #0
            yStepCount++;
        }
        if(yStepCount >= amtRows) {
            yStepCount = 0;
     abc:	e355000c 	cmp	r5, #12
     ac0:	c3a05000 	movgt	r5, #0
        }
        allParticles[i].x = initX + xStepCount*stepX + (rand() % INIT_VAR) - (INIT_VAR>>1);
     ac4:	eb0021b3 	bl	9198 <rand>
     ac8:	e0862206 	add	r2, r6, r6, lsl #4
     acc:	e3089e39 	movw	r9, #36409	; 0x8e39
     ad0:	e34398e3 	movt	r9, #14563	; 0x38e3
     ad4:	e0c13099 	smull	r3, r1, r9, r0
     ad8:	e1a03fc0 	asr	r3, r0, #31
     adc:	e06330c1 	rsb	r3, r3, r1, asr #1
     ae0:	e0833183 	add	r3, r3, r3, lsl #3
     ae4:	e0630000 	rsb	r0, r3, r0
     ae8:	e0823000 	add	r3, r2, r0
     aec:	e2833004 	add	r3, r3, #4
     af0:	e5043010 	str	r3, [r4, #-16]
        allParticles[i].y = initY + yStepCount*stepY + (rand() % INIT_VAR) - (INIT_VAR>>1);
     af4:	eb0021a7 	bl	9198 <rand>
     af8:	e0852185 	add	r2, r5, r5, lsl #3
     afc:	e0c9c099 	smull	r12, r9, r9, r0
     b00:	e1a03fc0 	asr	r3, r0, #31
     b04:	e06330c9 	rsb	r3, r3, r9, asr #1
     b08:	e0833183 	add	r3, r3, r3, lsl #3
     b0c:	e0630000 	rsb	r0, r3, r0
     b10:	e0803082 	add	r3, r0, r2, lsl #1
     b14:	e2833005 	add	r3, r3, #5
     b18:	e1a0b003 	mov	r11, r3
     b1c:	e1a09003 	mov	r9, r3
     b20:	e504300c 	str	r3, [r4, #-12]
        allParticles[i].vx = 0;
     b24:	e3a03000 	mov	r3, #0
     b28:	e5843000 	str	r3, [r4]
        allParticles[i].vy = 0;
     b2c:	e5843004 	str	r3, [r4, #4]
} Particle;

Particle allParticles[NUM_PARTICLES];
drawParticle allEraseParticles[NUM_PARTICLES];

void initParticles() {
     b30:	e2843ed6 	add	r3, r4, #3424	; 0xd60
        }
        allParticles[i].x = initX + xStepCount*stepX + (rand() % INIT_VAR) - (INIT_VAR>>1);
        allParticles[i].y = initY + yStepCount*stepY + (rand() % INIT_VAR) - (INIT_VAR>>1);
        allParticles[i].vx = 0;
        allParticles[i].vy = 0;
        allParticles[i].colour = WATER_COLOUR;
     b34:	e3062c5f 	movw	r2, #27743	; 0x6c5f
     b38:	e1c320b0 	strh	r2, [r3]

        xStepCount++;
     b3c:	e2866001 	add	r6, r6, #1

        allParticles[i].pX = M_PER_PX * allParticles[i].x;
     b40:	e5140010 	ldr	r0, [r4, #-16]
     b44:	eb001dc0 	bl	824c <__aeabi_i2d>
     b48:	e301247b 	movw	r2, #5243	; 0x147b
     b4c:	e34427ae 	movt	r2, #18350	; 0x47ae
     b50:	e3073ae1 	movw	r3, #31457	; 0x7ae1
     b54:	e3433f94 	movt	r3, #16276	; 0x3f94
     b58:	eb001df2 	bl	8328 <__aeabi_dmul>
     b5c:	eb001f80 	bl	8964 <__aeabi_d2f>
     b60:	e5040008 	str	r0, [r4, #-8]
        allParticles[i].pY = M_PER_PX * allParticles[i].y;
     b64:	e1a0000b 	mov	r0, r11
     b68:	eb001db7 	bl	824c <__aeabi_i2d>
     b6c:	e301247b 	movw	r2, #5243	; 0x147b
     b70:	e34427ae 	movt	r2, #18350	; 0x47ae
     b74:	e3073ae1 	movw	r3, #31457	; 0x7ae1
     b78:	e3433f94 	movt	r3, #16276	; 0x3f94
     b7c:	eb001de9 	bl	8328 <__aeabi_dmul>
     b80:	eb001f77 	bl	8964 <__aeabi_d2f>
     b84:	e5040004 	str	r0, [r4, #-4]
        allEraseParticles[i].x = allParticles[i].x;
     b88:	e5142010 	ldr	r2, [r4, #-16]
     b8c:	e59f3038 	ldr	r3, [pc, #56]	; bcc <initParticles+0x198>
     b90:	e7a3200a 	str	r2, [r3, r10]!
        allEraseParticles[i].y = allParticles[i].y;
     b94:	e583b004 	str	r11, [r3, #4]
    // printf("\ninv density: %f", inv_rho_naught);

    int xStepCount = 0;
    int yStepCount = 0;
	
    for (int i = 0; i < NUM_PARTICLES; i++) {
     b98:	e2888001 	add	r8, r8, #1
     b9c:	e2844d36 	add	r4, r4, #3456	; 0xd80
     ba0:	e28aa008 	add	r10, r10, #8
     ba4:	e2877e32 	add	r7, r7, #800	; 0x320
     ba8:	e35800c8 	cmp	r8, #200	; 0xc8
     bac:	08bd8ff8 	popeq	{r3, r4, r5, r6, r7, r8, r9, r10, r11, pc}
} Particle;

Particle allParticles[NUM_PARTICLES];
drawParticle allEraseParticles[NUM_PARTICLES];

void initParticles() {
     bb0:	e3a03000 	mov	r3, #0
     bb4:	e59f2014 	ldr	r2, [pc, #20]	; bd0 <initParticles+0x19c>
     bb8:	e0870002 	add	r0, r7, r2
    int yStepCount = 0;
	
    for (int i = 0; i < NUM_PARTICLES; i++) {
		
        for(int j = 0; j < NUM_PARTICLES; j++){
            lastSeen[i][j] = -1;
     bbc:	e3e02000 	mvn	r2, #0
} Particle;

Particle allParticles[NUM_PARTICLES];
drawParticle allEraseParticles[NUM_PARTICLES];

void initParticles() {
     bc0:	e59fc00c 	ldr	r12, [pc, #12]	; bd4 <initParticles+0x1a0>
     bc4:	e087100c 	add	r1, r7, r12
     bc8:	eaffffb1 	b	a94 <initParticles+0x60>
     bcc:	00100c70 	.word	0x00100c70
     bd0:	000b2a70 	.word	0x000b2a70
     bd4:	000d9b70 	.word	0x000d9b70

00000bd8 <draw2b2>:
        allEraseParticles[i].x = allParticles[i].x;
        allEraseParticles[i].y = allParticles[i].y;
    }
}

void draw2b2(int x, int y, short int colour) {
     bd8:	e92d40f8 	push	{r3, r4, r5, r6, r7, lr}
     bdc:	e1a05000 	mov	r5, r0
     be0:	e1a04001 	mov	r4, r1
     be4:	e1a06002 	mov	r6, r2
    drawIndividualPixel(x, y, colour);
     be8:	ebfffe00 	bl	3f0 <drawIndividualPixel>
    if (x < (MAX_X-2) && y > 1) {
     bec:	e300313d 	movw	r3, #317	; 0x13d
     bf0:	e1550003 	cmp	r5, r3
     bf4:	c3a03000 	movgt	r3, #0
     bf8:	d3a03001 	movle	r3, #1
     bfc:	e3540001 	cmp	r4, #1
     c00:	d3a01000 	movle	r1, #0
     c04:	c3a01001 	movgt	r1, #1
     c08:	e1110003 	tst	r1, r3
     c0c:	0a00000e 	beq	c4c <draw2b2+0x74>
        drawIndividualPixel(x + 1, y, colour);
     c10:	e2857001 	add	r7, r5, #1
     c14:	e1a00007 	mov	r0, r7
     c18:	e1a01004 	mov	r1, r4
     c1c:	e1a02006 	mov	r2, r6
     c20:	ebfffdf2 	bl	3f0 <drawIndividualPixel>
        drawIndividualPixel(x + 1, y - 1, colour);
     c24:	e2444001 	sub	r4, r4, #1
     c28:	e1a00007 	mov	r0, r7
     c2c:	e1a01004 	mov	r1, r4
     c30:	e1a02006 	mov	r2, r6
     c34:	ebfffded 	bl	3f0 <drawIndividualPixel>
        drawIndividualPixel(x, y - 1, colour);
     c38:	e1a00005 	mov	r0, r5
     c3c:	e1a01004 	mov	r1, r4
     c40:	e1a02006 	mov	r2, r6
     c44:	ebfffde9 	bl	3f0 <drawIndividualPixel>
     c48:	e8bd80f8 	pop	{r3, r4, r5, r6, r7, pc}
    } else if (x < (MAX_X-2)) {
     c4c:	e3530000 	cmp	r3, #0
     c50:	0a000004 	beq	c68 <draw2b2+0x90>
        drawIndividualPixel(x + 1, y, colour);
     c54:	e2850001 	add	r0, r5, #1
     c58:	e1a01004 	mov	r1, r4
     c5c:	e1a02006 	mov	r2, r6
     c60:	ebfffde2 	bl	3f0 <drawIndividualPixel>
     c64:	e8bd80f8 	pop	{r3, r4, r5, r6, r7, pc}
    } else if (y > 1) {
     c68:	e3510000 	cmp	r1, #0
     c6c:	08bd80f8 	popeq	{r3, r4, r5, r6, r7, pc}
        drawIndividualPixel(x, y - 1, colour);
     c70:	e1a00005 	mov	r0, r5
     c74:	e2441001 	sub	r1, r4, #1
     c78:	e1a02006 	mov	r2, r6
     c7c:	ebfffddb 	bl	3f0 <drawIndividualPixel>
     c80:	e8bd80f8 	pop	{r3, r4, r5, r6, r7, pc}

00000c84 <eraseParticles>:
    }
}
void eraseParticles() {
     c84:	e92d4070 	push	{r4, r5, r6, lr}
     c88:	e3a04000 	mov	r4, #0
    for (int i = 0; i < NUM_PARTICLES; i++) {
        //drawIndividualPixel(allParticles[i].x, allParticles[i].y, BLACK);
        draw2b2(allEraseParticles[i].x, allEraseParticles[i].y, BLACK);
     c8c:	e59f6024 	ldr	r6, [pc, #36]	; cb8 <eraseParticles+0x34>
     c90:	e1a05004 	mov	r5, r4
     c94:	e1a03006 	mov	r3, r6
     c98:	e7b30004 	ldr	r0, [r3, r4]!
     c9c:	e5931004 	ldr	r1, [r3, #4]
     ca0:	e1a02005 	mov	r2, r5
     ca4:	ebffffcb 	bl	bd8 <draw2b2>
     ca8:	e2844008 	add	r4, r4, #8
    } else if (y > 1) {
        drawIndividualPixel(x, y - 1, colour);
    }
}
void eraseParticles() {
    for (int i = 0; i < NUM_PARTICLES; i++) {
     cac:	e3540d19 	cmp	r4, #1600	; 0x640
     cb0:	1afffff7 	bne	c94 <eraseParticles+0x10>
        //drawIndividualPixel(allParticles[i].x, allParticles[i].y, BLACK);
        draw2b2(allEraseParticles[i].x, allEraseParticles[i].y, BLACK);
    }
}
     cb4:	e8bd8070 	pop	{r4, r5, r6, pc}
     cb8:	00100c70 	.word	0x00100c70

00000cbc <drawParticles>:
void drawParticles() {
     cbc:	e92d4070 	push	{r4, r5, r6, lr}
     cc0:	e3a04000 	mov	r4, #0
     cc4:	e59f502c 	ldr	r5, [pc, #44]	; cf8 <drawParticles+0x3c>
    for (int i = 0; i < NUM_PARTICLES; i++) {
     cc8:	e3a06b23 	mov	r6, #35840	; 0x8c00
     ccc:	e340600a 	movt	r6, #10
    for (int i = 0; i < NUM_PARTICLES; i++) {
        //drawIndividualPixel(allParticles[i].x, allParticles[i].y, BLACK);
        draw2b2(allEraseParticles[i].x, allEraseParticles[i].y, BLACK);
    }
}
void drawParticles() {
     cd0:	e0853004 	add	r3, r5, r4
     cd4:	e2832ed7 	add	r2, r3, #3440	; 0xd70
    for (int i = 0; i < NUM_PARTICLES; i++) {
        //drawIndividualPixel(allParticles[i].x, allParticles[i].y, allParticles[i].colour);
        draw2b2(allParticles[i].x, allParticles[i].y, allParticles[i].colour);
     cd8:	e7950004 	ldr	r0, [r5, r4]
     cdc:	e5931004 	ldr	r1, [r3, #4]
     ce0:	e1d220f0 	ldrsh	r2, [r2]
     ce4:	ebffffbb 	bl	bd8 <draw2b2>
     ce8:	e2844d36 	add	r4, r4, #3456	; 0xd80
        //drawIndividualPixel(allParticles[i].x, allParticles[i].y, BLACK);
        draw2b2(allEraseParticles[i].x, allEraseParticles[i].y, BLACK);
    }
}
void drawParticles() {
    for (int i = 0; i < NUM_PARTICLES; i++) {
     cec:	e1540006 	cmp	r4, r6
     cf0:	1afffff6 	bne	cd0 <drawParticles+0x14>
        //drawIndividualPixel(allParticles[i].x, allParticles[i].y, allParticles[i].colour);
        draw2b2(allParticles[i].x, allParticles[i].y, allParticles[i].colour);
    }
}
     cf4:	e8bd8070 	pop	{r4, r5, r6, pc}
     cf8:	00009e70 	.word	0x00009e70

00000cfc <stepSPHPositions>:

// Reference:
// https://cg.informatik.uni-freiburg.de/course_notes/sim_10_sph.pdf

void stepSPHPositions(int i) {
     cfc:	e92d41f0 	push	{r4, r5, r6, r7, r8, lr}
     d00:	e1a07000 	mov	r7, r0

    allParticles[i].pX += allParticles[i].vx * SPF;
     d04:	e3093e4c 	movw	r3, #40524	; 0x9e4c
     d08:	e3403000 	movt	r3, #0
     d0c:	e3a06d36 	mov	r6, #3456	; 0xd80
     d10:	e0263096 	mla	r6, r6, r0, r3
     d14:	e596002c 	ldr	r0, [r6, #44]	; 0x2c
     d18:	eb001d55 	bl	8274 <__aeabi_f2d>
     d1c:	e1a04000 	mov	r4, r0
     d20:	e1a05001 	mov	r5, r1
     d24:	e5960034 	ldr	r0, [r6, #52]	; 0x34
     d28:	eb001d51 	bl	8274 <__aeabi_f2d>
     d2c:	e301247b 	movw	r2, #5243	; 0x147b
     d30:	e34427ae 	movt	r2, #18350	; 0x47ae
     d34:	e3073ae1 	movw	r3, #31457	; 0x7ae1
     d38:	e3433f94 	movt	r3, #16276	; 0x3f94
     d3c:	eb001d79 	bl	8328 <__aeabi_dmul>
     d40:	e1a02000 	mov	r2, r0
     d44:	e1a03001 	mov	r3, r1
     d48:	e1a00004 	mov	r0, r4
     d4c:	e1a01005 	mov	r1, r5
     d50:	eb001c70 	bl	7f18 <__adddf3>
     d54:	eb001f02 	bl	8964 <__aeabi_d2f>
     d58:	e1a08000 	mov	r8, r0
     d5c:	e586002c 	str	r0, [r6, #44]	; 0x2c
    allParticles[i].pY += allParticles[i].vy * SPF;
     d60:	e5960030 	ldr	r0, [r6, #48]	; 0x30
     d64:	eb001d42 	bl	8274 <__aeabi_f2d>
     d68:	e1a04000 	mov	r4, r0
     d6c:	e1a05001 	mov	r5, r1
     d70:	e5960038 	ldr	r0, [r6, #56]	; 0x38
     d74:	eb001d3e 	bl	8274 <__aeabi_f2d>
     d78:	e301247b 	movw	r2, #5243	; 0x147b
     d7c:	e34427ae 	movt	r2, #18350	; 0x47ae
     d80:	e3073ae1 	movw	r3, #31457	; 0x7ae1
     d84:	e3433f94 	movt	r3, #16276	; 0x3f94
     d88:	eb001d66 	bl	8328 <__aeabi_dmul>
     d8c:	e1a02000 	mov	r2, r0
     d90:	e1a03001 	mov	r3, r1
     d94:	e1a00004 	mov	r0, r4
     d98:	e1a01005 	mov	r1, r5
     d9c:	eb001c5d 	bl	7f18 <__adddf3>
     da0:	eb001eef 	bl	8964 <__aeabi_d2f>
     da4:	e1a05000 	mov	r5, r0
     da8:	e5860030 	str	r0, [r6, #48]	; 0x30
    allParticles[i].x = PX_PER_M * allParticles[i].pX;
     dac:	e1a00008 	mov	r0, r8
     db0:	eb001d2f 	bl	8274 <__aeabi_f2d>
     db4:	e3a02000 	mov	r2, #0
     db8:	e3a03000 	mov	r3, #0
     dbc:	e3443049 	movt	r3, #16457	; 0x4049
     dc0:	eb001d58 	bl	8328 <__aeabi_dmul>
     dc4:	eb001ecf 	bl	8908 <__aeabi_d2iz>
     dc8:	e1a04000 	mov	r4, r0
     dcc:	e5860024 	str	r0, [r6, #36]	; 0x24
    allParticles[i].y = PX_PER_M * allParticles[i].pY;
     dd0:	e1a00005 	mov	r0, r5
     dd4:	eb001d26 	bl	8274 <__aeabi_f2d>
     dd8:	e3a02000 	mov	r2, #0
     ddc:	e3a03000 	mov	r3, #0
     de0:	e3443049 	movt	r3, #16457	; 0x4049
     de4:	eb001d4f 	bl	8328 <__aeabi_dmul>
     de8:	eb001ec6 	bl	8908 <__aeabi_d2iz>
     dec:	e5860028 	str	r0, [r6, #40]	; 0x28

    // If, for whatever reason, we went out of bounds after velocity application, fix them manually.
	if (allParticles[i].x <= 0){
     df0:	e3540000 	cmp	r4, #0
		allParticles[i].x = 0;
     df4:	d1a03006 	movle	r3, r6
     df8:	d3a02000 	movle	r2, #0
     dfc:	d5832024 	strle	r2, [r3, #36]	; 0x24
    allParticles[i].pY += allParticles[i].vy * SPF;
    allParticles[i].x = PX_PER_M * allParticles[i].pX;
    allParticles[i].y = PX_PER_M * allParticles[i].pY;

    // If, for whatever reason, we went out of bounds after velocity application, fix them manually.
	if (allParticles[i].x <= 0){
     e00:	da000007 	ble	e24 <stepSPHPositions+0x128>
		allParticles[i].x = 0;
        // allParticles[i].pX = EPSILON;
        
	} else if (allParticles[i].x > (MAX_X - 1)) {
     e04:	e3540d05 	cmp	r4, #320	; 0x140
     e08:	ba000005 	blt	e24 <stepSPHPositions+0x128>
		allParticles[i].x = MAX_X-1;
     e0c:	e3093e4c 	movw	r3, #40524	; 0x9e4c
     e10:	e3403000 	movt	r3, #0
     e14:	e3a02d36 	mov	r2, #3456	; 0xd80
     e18:	e0233792 	mla	r3, r2, r7, r3
     e1c:	e300213f 	movw	r2, #319	; 0x13f
     e20:	e5832024 	str	r2, [r3, #36]	; 0x24
        // allParticles[i].pX = M_PER_PX * allParticles[i].x;
	}
	if (allParticles[i].y <= 0){
     e24:	e3093e4c 	movw	r3, #40524	; 0x9e4c
     e28:	e3403000 	movt	r3, #0
     e2c:	e3a02d36 	mov	r2, #3456	; 0xd80
     e30:	e0233792 	mla	r3, r2, r7, r3
     e34:	e5933028 	ldr	r3, [r3, #40]	; 0x28
     e38:	e3530000 	cmp	r3, #0
     e3c:	ca000005 	bgt	e58 <stepSPHPositions+0x15c>
		allParticles[i].y = 0;
     e40:	e3093e4c 	movw	r3, #40524	; 0x9e4c
     e44:	e3403000 	movt	r3, #0
     e48:	e0273792 	mla	r7, r2, r7, r3
     e4c:	e3a03000 	mov	r3, #0
     e50:	e5873028 	str	r3, [r7, #40]	; 0x28
     e54:	e8bd81f0 	pop	{r4, r5, r6, r7, r8, pc}
        // allParticles[i].pY = EPSILON;

	} else if (allParticles[i].y > (MAX_Y -1)){
     e58:	e35300ef 	cmp	r3, #239	; 0xef
     e5c:	d8bd81f0 	pople	{r4, r5, r6, r7, r8, pc}
		allParticles[i].y = MAX_Y-1;
     e60:	e3093e4c 	movw	r3, #40524	; 0x9e4c
     e64:	e3403000 	movt	r3, #0
     e68:	e3a02d36 	mov	r2, #3456	; 0xd80
     e6c:	e0273792 	mla	r7, r2, r7, r3
     e70:	e3a030ef 	mov	r3, #239	; 0xef
     e74:	e5873028 	str	r3, [r7, #40]	; 0x28
        allParticles[i].pY = M_PER_PX * allParticles[i].y;
     e78:	e30f35c3 	movw	r3, #62915	; 0xf5c3
     e7c:	e3443098 	movt	r3, #16536	; 0x4098
     e80:	e5873030 	str	r3, [r7, #48]	; 0x30
     e84:	e8bd81f0 	pop	{r4, r5, r6, r7, r8, pc}

00000e88 <doVelocityStepCheck>:
	}
    
}

void doVelocityStepCheck(int i) {
     e88:	e92d4070 	push	{r4, r5, r6, lr}
     e8c:	e1a04000 	mov	r4, r0
    // Container collision handling and application of TUG Accelerations.
    if((allParticles[i].x >= (MAX_X-1) && allParticles[i].vx > 0) || (allParticles[i].x <= 0 && allParticles[i].vx < 0)) {
     e90:	e3093e4c 	movw	r3, #40524	; 0x9e4c
     e94:	e3403000 	movt	r3, #0
     e98:	e3a02d36 	mov	r2, #3456	; 0xd80
     e9c:	e0233092 	mla	r3, r2, r0, r3
     ea0:	e5935024 	ldr	r5, [r3, #36]	; 0x24
     ea4:	e300313e 	movw	r3, #318	; 0x13e
     ea8:	e1550003 	cmp	r5, r3
     eac:	da000007 	ble	ed0 <doVelocityStepCheck+0x48>
     eb0:	e3093e4c 	movw	r3, #40524	; 0x9e4c
     eb4:	e3403000 	movt	r3, #0
     eb8:	e0233092 	mla	r3, r2, r0, r3
     ebc:	e5930034 	ldr	r0, [r3, #52]	; 0x34
     ec0:	e3a01000 	mov	r1, #0
     ec4:	eb002076 	bl	90a4 <__aeabi_fcmpgt>
     ec8:	e3500000 	cmp	r0, #0
     ecc:	1a00000a 	bne	efc <doVelocityStepCheck+0x74>
     ed0:	e3550000 	cmp	r5, #0
     ed4:	ca000017 	bgt	f38 <doVelocityStepCheck+0xb0>
     ed8:	e3093e4c 	movw	r3, #40524	; 0x9e4c
     edc:	e3403000 	movt	r3, #0
     ee0:	e3a02d36 	mov	r2, #3456	; 0xd80
     ee4:	e0233492 	mla	r3, r2, r4, r3
     ee8:	e5930034 	ldr	r0, [r3, #52]	; 0x34
     eec:	e3a01000 	mov	r1, #0
     ef0:	eb002059 	bl	905c <__aeabi_fcmplt>
     ef4:	e3500000 	cmp	r0, #0
     ef8:	0a00000e 	beq	f38 <doVelocityStepCheck+0xb0>
        allParticles[i].vx = -allParticles[i].vx*ELASTICITY;
     efc:	e3093e4c 	movw	r3, #40524	; 0x9e4c
     f00:	e3403000 	movt	r3, #0
     f04:	e3a05d36 	mov	r5, #3456	; 0xd80
     f08:	e0253495 	mla	r5, r5, r4, r3
     f0c:	e5950034 	ldr	r0, [r5, #52]	; 0x34
     f10:	e2800102 	add	r0, r0, #-2147483648	; 0x80000000
     f14:	eb001cd6 	bl	8274 <__aeabi_f2d>
     f18:	e309299a 	movw	r2, #39322	; 0x999a
     f1c:	e3492999 	movt	r2, #39321	; 0x9999
     f20:	e3093999 	movw	r3, #39321	; 0x9999
     f24:	e3433fc9 	movt	r3, #16329	; 0x3fc9
     f28:	eb001cfe 	bl	8328 <__aeabi_dmul>
     f2c:	eb001e8c 	bl	8964 <__aeabi_d2f>
     f30:	e5850034 	str	r0, [r5, #52]	; 0x34
     f34:	ea000035 	b	1010 <doVelocityStepCheck+0x188>
    }
    else if(allParticles[i].x <= hpx && allParticles[i].vx < EPSILON) {
     f38:	e3093e4c 	movw	r3, #40524	; 0x9e4c
     f3c:	e3403000 	movt	r3, #0
     f40:	e5936010 	ldr	r6, [r3, #16]
     f44:	e1550006 	cmp	r5, r6
     f48:	ca000016 	bgt	fa8 <doVelocityStepCheck+0x120>
     f4c:	e3093e4c 	movw	r3, #40524	; 0x9e4c
     f50:	e3403000 	movt	r3, #0
     f54:	e3a02d36 	mov	r2, #3456	; 0xd80
     f58:	e0233492 	mla	r3, r2, r4, r3
     f5c:	e5930034 	ldr	r0, [r3, #52]	; 0x34
     f60:	eb001cc3 	bl	8274 <__aeabi_f2d>
     f64:	e30a29fc 	movw	r2, #43516	; 0xa9fc
     f68:	e34d22f1 	movt	r2, #54001	; 0xd2f1
     f6c:	e306324d 	movw	r3, #25165	; 0x624d
     f70:	e3433f50 	movt	r3, #16208	; 0x3f50
     f74:	eb001e4b 	bl	88a8 <__aeabi_dcmplt>
     f78:	e3500000 	cmp	r0, #0
     f7c:	0a000009 	beq	fa8 <doVelocityStepCheck+0x120>
        allParticles[i].ax += TUG_ACCELERATION;
     f80:	e3093e4c 	movw	r3, #40524	; 0x9e4c
     f84:	e3403000 	movt	r3, #0
     f88:	e3a05d36 	mov	r5, #3456	; 0xd80
     f8c:	e0253495 	mla	r5, r5, r4, r3
     f90:	e595003c 	ldr	r0, [r5, #60]	; 0x3c
     f94:	e3a01000 	mov	r1, #0
     f98:	e34410a0 	movt	r1, #16544	; 0x40a0
     f9c:	eb001e9b 	bl	8a10 <__addsf3>
     fa0:	e585003c 	str	r0, [r5, #60]	; 0x3c
     fa4:	ea000019 	b	1010 <doVelocityStepCheck+0x188>
    }
    else if(allParticles[i].x >= (MAX_X-1-hpx) && allParticles[i].vx > -EPSILON) {
     fa8:	e2663f4f 	rsb	r3, r6, #316	; 0x13c
     fac:	e2833003 	add	r3, r3, #3
     fb0:	e1530005 	cmp	r3, r5
     fb4:	ca000015 	bgt	1010 <doVelocityStepCheck+0x188>
     fb8:	e3093e4c 	movw	r3, #40524	; 0x9e4c
     fbc:	e3403000 	movt	r3, #0
     fc0:	e3a02d36 	mov	r2, #3456	; 0xd80
     fc4:	e0233492 	mla	r3, r2, r4, r3
     fc8:	e5930034 	ldr	r0, [r3, #52]	; 0x34
     fcc:	eb001ca8 	bl	8274 <__aeabi_f2d>
     fd0:	e30a29fc 	movw	r2, #43516	; 0xa9fc
     fd4:	e34d22f1 	movt	r2, #54001	; 0xd2f1
     fd8:	e306324d 	movw	r3, #25165	; 0x624d
     fdc:	e34b3f50 	movt	r3, #48976	; 0xbf50
     fe0:	eb001e42 	bl	88f0 <__aeabi_dcmpgt>
     fe4:	e3500000 	cmp	r0, #0
     fe8:	0a000008 	beq	1010 <doVelocityStepCheck+0x188>
        allParticles[i].ax -= TUG_ACCELERATION;
     fec:	e3093e4c 	movw	r3, #40524	; 0x9e4c
     ff0:	e3403000 	movt	r3, #0
     ff4:	e3a05d36 	mov	r5, #3456	; 0xd80
     ff8:	e0253495 	mla	r5, r5, r4, r3
     ffc:	e595003c 	ldr	r0, [r5, #60]	; 0x3c
    1000:	e3a01000 	mov	r1, #0
    1004:	e34410a0 	movt	r1, #16544	; 0x40a0
    1008:	eb001e7f 	bl	8a0c <__aeabi_fsub>
    100c:	e585003c 	str	r0, [r5, #60]	; 0x3c
    }

    if((allParticles[i].y >= (MAX_Y-1) && allParticles[i].vy > 0) || (allParticles[i].y <= 0 && allParticles[i].vy < 0)) {
    1010:	e3093e4c 	movw	r3, #40524	; 0x9e4c
    1014:	e3403000 	movt	r3, #0
    1018:	e3a02d36 	mov	r2, #3456	; 0xd80
    101c:	e0233492 	mla	r3, r2, r4, r3
    1020:	e5935028 	ldr	r5, [r3, #40]	; 0x28
    1024:	e35500ee 	cmp	r5, #238	; 0xee
    1028:	da000007 	ble	104c <doVelocityStepCheck+0x1c4>
    102c:	e3093e4c 	movw	r3, #40524	; 0x9e4c
    1030:	e3403000 	movt	r3, #0
    1034:	e0233492 	mla	r3, r2, r4, r3
    1038:	e5930038 	ldr	r0, [r3, #56]	; 0x38
    103c:	e3a01000 	mov	r1, #0
    1040:	eb002017 	bl	90a4 <__aeabi_fcmpgt>
    1044:	e3500000 	cmp	r0, #0
    1048:	1a00000a 	bne	1078 <doVelocityStepCheck+0x1f0>
    104c:	e3550000 	cmp	r5, #0
    1050:	ca000017 	bgt	10b4 <doVelocityStepCheck+0x22c>
    1054:	e3093e4c 	movw	r3, #40524	; 0x9e4c
    1058:	e3403000 	movt	r3, #0
    105c:	e3a02d36 	mov	r2, #3456	; 0xd80
    1060:	e0233492 	mla	r3, r2, r4, r3
    1064:	e5930038 	ldr	r0, [r3, #56]	; 0x38
    1068:	e3a01000 	mov	r1, #0
    106c:	eb001ffa 	bl	905c <__aeabi_fcmplt>
    1070:	e3500000 	cmp	r0, #0
    1074:	0a00000e 	beq	10b4 <doVelocityStepCheck+0x22c>
        allParticles[i].vy = -allParticles[i].vy*ELASTICITY;
    1078:	e3093e4c 	movw	r3, #40524	; 0x9e4c
    107c:	e3403000 	movt	r3, #0
    1080:	e3a02d36 	mov	r2, #3456	; 0xd80
    1084:	e0243492 	mla	r4, r2, r4, r3
    1088:	e5940038 	ldr	r0, [r4, #56]	; 0x38
    108c:	e2800102 	add	r0, r0, #-2147483648	; 0x80000000
    1090:	eb001c77 	bl	8274 <__aeabi_f2d>
    1094:	e309299a 	movw	r2, #39322	; 0x999a
    1098:	e3492999 	movt	r2, #39321	; 0x9999
    109c:	e3093999 	movw	r3, #39321	; 0x9999
    10a0:	e3433fc9 	movt	r3, #16329	; 0x3fc9
    10a4:	eb001c9f 	bl	8328 <__aeabi_dmul>
    10a8:	eb001e2d 	bl	8964 <__aeabi_d2f>
    10ac:	e5840038 	str	r0, [r4, #56]	; 0x38
    10b0:	e8bd8070 	pop	{r4, r5, r6, pc}
    }
    else if(allParticles[i].y <= hpx && allParticles[i].vy < EPSILON) {
    10b4:	e3093e4c 	movw	r3, #40524	; 0x9e4c
    10b8:	e3403000 	movt	r3, #0
    10bc:	e5936010 	ldr	r6, [r3, #16]
    10c0:	e1550006 	cmp	r5, r6
    10c4:	ca000016 	bgt	1124 <doVelocityStepCheck+0x29c>
    10c8:	e3093e4c 	movw	r3, #40524	; 0x9e4c
    10cc:	e3403000 	movt	r3, #0
    10d0:	e3a02d36 	mov	r2, #3456	; 0xd80
    10d4:	e0233492 	mla	r3, r2, r4, r3
    10d8:	e5930038 	ldr	r0, [r3, #56]	; 0x38
    10dc:	eb001c64 	bl	8274 <__aeabi_f2d>
    10e0:	e30a29fc 	movw	r2, #43516	; 0xa9fc
    10e4:	e34d22f1 	movt	r2, #54001	; 0xd2f1
    10e8:	e306324d 	movw	r3, #25165	; 0x624d
    10ec:	e3433f50 	movt	r3, #16208	; 0x3f50
    10f0:	eb001dec 	bl	88a8 <__aeabi_dcmplt>
    10f4:	e3500000 	cmp	r0, #0
    10f8:	0a000009 	beq	1124 <doVelocityStepCheck+0x29c>
        allParticles[i].ay += TUG_ACCELERATION;
    10fc:	e3093e4c 	movw	r3, #40524	; 0x9e4c
    1100:	e3403000 	movt	r3, #0
    1104:	e3a02d36 	mov	r2, #3456	; 0xd80
    1108:	e0243492 	mla	r4, r2, r4, r3
    110c:	e5940040 	ldr	r0, [r4, #64]	; 0x40
    1110:	e3a01000 	mov	r1, #0
    1114:	e34410a0 	movt	r1, #16544	; 0x40a0
    1118:	eb001e3c 	bl	8a10 <__addsf3>
    111c:	e5840040 	str	r0, [r4, #64]	; 0x40
    1120:	e8bd8070 	pop	{r4, r5, r6, pc}
    }
    else if(allParticles[i].y >= (MAX_Y-1-hpx) && allParticles[i].vy > -EPSILON) {
    1124:	e26660ef 	rsb	r6, r6, #239	; 0xef
    1128:	e1550006 	cmp	r5, r6
    112c:	b8bd8070 	poplt	{r4, r5, r6, pc}
    1130:	e3093e4c 	movw	r3, #40524	; 0x9e4c
    1134:	e3403000 	movt	r3, #0
    1138:	e3a02d36 	mov	r2, #3456	; 0xd80
    113c:	e0233492 	mla	r3, r2, r4, r3
    1140:	e5930038 	ldr	r0, [r3, #56]	; 0x38
    1144:	eb001c4a 	bl	8274 <__aeabi_f2d>
    1148:	e30a29fc 	movw	r2, #43516	; 0xa9fc
    114c:	e34d22f1 	movt	r2, #54001	; 0xd2f1
    1150:	e306324d 	movw	r3, #25165	; 0x624d
    1154:	e34b3f50 	movt	r3, #48976	; 0xbf50
    1158:	eb001de4 	bl	88f0 <__aeabi_dcmpgt>
    115c:	e3500000 	cmp	r0, #0
    1160:	08bd8070 	popeq	{r4, r5, r6, pc}
        allParticles[i].ay -= TUG_ACCELERATION;
    1164:	e3093e4c 	movw	r3, #40524	; 0x9e4c
    1168:	e3403000 	movt	r3, #0
    116c:	e3a02d36 	mov	r2, #3456	; 0xd80
    1170:	e0243492 	mla	r4, r2, r4, r3
    1174:	e5940040 	ldr	r0, [r4, #64]	; 0x40
    1178:	e3a01000 	mov	r1, #0
    117c:	e34410a0 	movt	r1, #16544	; 0x40a0
    1180:	eb001e21 	bl	8a0c <__aeabi_fsub>
    1184:	e5840040 	str	r0, [r4, #64]	; 0x40
    1188:	e8bd8070 	pop	{r4, r5, r6, pc}

0000118c <floatAbs>:
    }
}

float floatAbs(float in){
    118c:	e92d4010 	push	{r4, lr}
    1190:	e1a04000 	mov	r4, r0
    return in > 0 ? in : -in;
    1194:	e3a01000 	mov	r1, #0
    1198:	eb001fc1 	bl	90a4 <__aeabi_fcmpgt>
    119c:	e3500000 	cmp	r0, #0
    11a0:	02844102 	addeq	r4, r4, #-2147483648	; 0x80000000
}
    11a4:	e1a00004 	mov	r0, r4
    11a8:	e8bd8010 	pop	{r4, pc}

000011ac <stepSPHVelocities>:
void stepSPHVelocities(int i) {
    11ac:	e92d41f0 	push	{r4, r5, r6, r7, r8, lr}
    11b0:	e1a06000 	mov	r6, r0
    
    if(floatAbs(allParticles[i].vx) < VELOCITY_COLOUR_SENSITIVITY/2){
    11b4:	e3093e4c 	movw	r3, #40524	; 0x9e4c
    11b8:	e3403000 	movt	r3, #0
    11bc:	e3a02d36 	mov	r2, #3456	; 0xd80
    11c0:	e0233092 	mla	r3, r2, r0, r3
    11c4:	e5934034 	ldr	r4, [r3, #52]	; 0x34
    11c8:	e1a00004 	mov	r0, r4
    11cc:	ebffffee 	bl	118c <floatAbs>
    11d0:	e3a01000 	mov	r1, #0
    11d4:	e3441120 	movt	r1, #16672	; 0x4120
    11d8:	eb001f9f 	bl	905c <__aeabi_fcmplt>
    11dc:	e3500000 	cmp	r0, #0
    11e0:	0a000016 	beq	1240 <stepSPHVelocities+0x94>
        allParticles[i].vx += allParticles[i].ax*SPF;
    11e4:	e3093e4c 	movw	r3, #40524	; 0x9e4c
    11e8:	e3403000 	movt	r3, #0
    11ec:	e3a07d36 	mov	r7, #3456	; 0xd80
    11f0:	e0273697 	mla	r7, r7, r6, r3
    11f4:	e1a00004 	mov	r0, r4
    11f8:	eb001c1d 	bl	8274 <__aeabi_f2d>
    11fc:	e1a04000 	mov	r4, r0
    1200:	e1a05001 	mov	r5, r1
    1204:	e597003c 	ldr	r0, [r7, #60]	; 0x3c
    1208:	eb001c19 	bl	8274 <__aeabi_f2d>
    120c:	e301247b 	movw	r2, #5243	; 0x147b
    1210:	e34427ae 	movt	r2, #18350	; 0x47ae
    1214:	e3073ae1 	movw	r3, #31457	; 0x7ae1
    1218:	e3433f94 	movt	r3, #16276	; 0x3f94
    121c:	eb001c41 	bl	8328 <__aeabi_dmul>
    1220:	e1a02000 	mov	r2, r0
    1224:	e1a03001 	mov	r3, r1
    1228:	e1a00004 	mov	r0, r4
    122c:	e1a01005 	mov	r1, r5
    1230:	eb001b38 	bl	7f18 <__adddf3>
    1234:	eb001dca 	bl	8964 <__aeabi_d2f>
    1238:	e5870034 	str	r0, [r7, #52]	; 0x34
    123c:	ea000029 	b	12e8 <stepSPHVelocities+0x13c>
    } else if ((allParticles[i].vx > 0) != (allParticles[i].ax > 0)) {
    1240:	e3093e4c 	movw	r3, #40524	; 0x9e4c
    1244:	e3403000 	movt	r3, #0
    1248:	e3a02d36 	mov	r2, #3456	; 0xd80
    124c:	e0233692 	mla	r3, r2, r6, r3
    1250:	e593703c 	ldr	r7, [r3, #60]	; 0x3c
    1254:	e3a08001 	mov	r8, #1
    1258:	e1a00007 	mov	r0, r7
    125c:	e3a01000 	mov	r1, #0
    1260:	eb001f8f 	bl	90a4 <__aeabi_fcmpgt>
    1264:	e3500000 	cmp	r0, #0
    1268:	03a08000 	moveq	r8, #0
    126c:	e3a05001 	mov	r5, #1
    1270:	e1a00004 	mov	r0, r4
    1274:	e3a01000 	mov	r1, #0
    1278:	eb001f89 	bl	90a4 <__aeabi_fcmpgt>
    127c:	e3500000 	cmp	r0, #0
    1280:	03a05000 	moveq	r5, #0
    1284:	e0285005 	eor	r5, r8, r5
    1288:	e3150001 	tst	r5, #1
    128c:	0a000015 	beq	12e8 <stepSPHVelocities+0x13c>
        allParticles[i].vx += allParticles[i].ax*SPF;
    1290:	e3093e4c 	movw	r3, #40524	; 0x9e4c
    1294:	e3403000 	movt	r3, #0
    1298:	e3a08d36 	mov	r8, #3456	; 0xd80
    129c:	e0283698 	mla	r8, r8, r6, r3
    12a0:	e1a00004 	mov	r0, r4
    12a4:	eb001bf2 	bl	8274 <__aeabi_f2d>
    12a8:	e1a04000 	mov	r4, r0
    12ac:	e1a05001 	mov	r5, r1
    12b0:	e1a00007 	mov	r0, r7
    12b4:	eb001bee 	bl	8274 <__aeabi_f2d>
    12b8:	e301247b 	movw	r2, #5243	; 0x147b
    12bc:	e34427ae 	movt	r2, #18350	; 0x47ae
    12c0:	e3073ae1 	movw	r3, #31457	; 0x7ae1
    12c4:	e3433f94 	movt	r3, #16276	; 0x3f94
    12c8:	eb001c16 	bl	8328 <__aeabi_dmul>
    12cc:	e1a02000 	mov	r2, r0
    12d0:	e1a03001 	mov	r3, r1
    12d4:	e1a00004 	mov	r0, r4
    12d8:	e1a01005 	mov	r1, r5
    12dc:	eb001b0d 	bl	7f18 <__adddf3>
    12e0:	eb001d9f 	bl	8964 <__aeabi_d2f>
    12e4:	e5880034 	str	r0, [r8, #52]	; 0x34
    } if (isnan(allParticles[i].vx)) {
    12e8:	e3093e4c 	movw	r3, #40524	; 0x9e4c
    12ec:	e3403000 	movt	r3, #0
    12f0:	e3a02d36 	mov	r2, #3456	; 0xd80
    12f4:	e0233692 	mla	r3, r2, r6, r3
    12f8:	e5930034 	ldr	r0, [r3, #52]	; 0x34
    12fc:	eb000bc9 	bl	4228 <__fpclassifyf>
    1300:	e3500000 	cmp	r0, #0
    1304:	1a000005 	bne	1320 <stepSPHVelocities+0x174>
        allParticles[i].vx = 0.0;
    1308:	e3093e4c 	movw	r3, #40524	; 0x9e4c
    130c:	e3403000 	movt	r3, #0
    1310:	e3a02d36 	mov	r2, #3456	; 0xd80
    1314:	e0233692 	mla	r3, r2, r6, r3
    1318:	e3a02000 	mov	r2, #0
    131c:	e5832034 	str	r2, [r3, #52]	; 0x34
    }
    if(floatAbs(allParticles[i].vy) < VELOCITY_COLOUR_SENSITIVITY/2){
    1320:	e3093e4c 	movw	r3, #40524	; 0x9e4c
    1324:	e3403000 	movt	r3, #0
    1328:	e3a02d36 	mov	r2, #3456	; 0xd80
    132c:	e0233692 	mla	r3, r2, r6, r3
    1330:	e5934038 	ldr	r4, [r3, #56]	; 0x38
    1334:	e1a00004 	mov	r0, r4
    1338:	ebffff93 	bl	118c <floatAbs>
    133c:	e3a01000 	mov	r1, #0
    1340:	e3441120 	movt	r1, #16672	; 0x4120
    1344:	eb001f44 	bl	905c <__aeabi_fcmplt>
    1348:	e3500000 	cmp	r0, #0
    134c:	0a000016 	beq	13ac <stepSPHVelocities+0x200>
        allParticles[i].vy += allParticles[i].ay*SPF;
    1350:	e3093e4c 	movw	r3, #40524	; 0x9e4c
    1354:	e3403000 	movt	r3, #0
    1358:	e3a07d36 	mov	r7, #3456	; 0xd80
    135c:	e0273697 	mla	r7, r7, r6, r3
    1360:	e1a00004 	mov	r0, r4
    1364:	eb001bc2 	bl	8274 <__aeabi_f2d>
    1368:	e1a04000 	mov	r4, r0
    136c:	e1a05001 	mov	r5, r1
    1370:	e5970040 	ldr	r0, [r7, #64]	; 0x40
    1374:	eb001bbe 	bl	8274 <__aeabi_f2d>
    1378:	e301247b 	movw	r2, #5243	; 0x147b
    137c:	e34427ae 	movt	r2, #18350	; 0x47ae
    1380:	e3073ae1 	movw	r3, #31457	; 0x7ae1
    1384:	e3433f94 	movt	r3, #16276	; 0x3f94
    1388:	eb001be6 	bl	8328 <__aeabi_dmul>
    138c:	e1a02000 	mov	r2, r0
    1390:	e1a03001 	mov	r3, r1
    1394:	e1a00004 	mov	r0, r4
    1398:	e1a01005 	mov	r1, r5
    139c:	eb001add 	bl	7f18 <__adddf3>
    13a0:	eb001d6f 	bl	8964 <__aeabi_d2f>
    13a4:	e5870038 	str	r0, [r7, #56]	; 0x38
    13a8:	ea000029 	b	1454 <stepSPHVelocities+0x2a8>
    } else if ((allParticles[i].vy > 0) != (allParticles[i].ay > 0)) {
    13ac:	e3093e4c 	movw	r3, #40524	; 0x9e4c
    13b0:	e3403000 	movt	r3, #0
    13b4:	e3a02d36 	mov	r2, #3456	; 0xd80
    13b8:	e0233692 	mla	r3, r2, r6, r3
    13bc:	e5937040 	ldr	r7, [r3, #64]	; 0x40
    13c0:	e3a08001 	mov	r8, #1
    13c4:	e1a00007 	mov	r0, r7
    13c8:	e3a01000 	mov	r1, #0
    13cc:	eb001f34 	bl	90a4 <__aeabi_fcmpgt>
    13d0:	e3500000 	cmp	r0, #0
    13d4:	03a08000 	moveq	r8, #0
    13d8:	e3a05001 	mov	r5, #1
    13dc:	e1a00004 	mov	r0, r4
    13e0:	e3a01000 	mov	r1, #0
    13e4:	eb001f2e 	bl	90a4 <__aeabi_fcmpgt>
    13e8:	e3500000 	cmp	r0, #0
    13ec:	03a05000 	moveq	r5, #0
    13f0:	e0285005 	eor	r5, r8, r5
    13f4:	e3150001 	tst	r5, #1
    13f8:	0a000015 	beq	1454 <stepSPHVelocities+0x2a8>
        allParticles[i].vy += allParticles[i].ay*SPF;
    13fc:	e3093e4c 	movw	r3, #40524	; 0x9e4c
    1400:	e3403000 	movt	r3, #0
    1404:	e3a08d36 	mov	r8, #3456	; 0xd80
    1408:	e0283698 	mla	r8, r8, r6, r3
    140c:	e1a00004 	mov	r0, r4
    1410:	eb001b97 	bl	8274 <__aeabi_f2d>
    1414:	e1a04000 	mov	r4, r0
    1418:	e1a05001 	mov	r5, r1
    141c:	e1a00007 	mov	r0, r7
    1420:	eb001b93 	bl	8274 <__aeabi_f2d>
    1424:	e301247b 	movw	r2, #5243	; 0x147b
    1428:	e34427ae 	movt	r2, #18350	; 0x47ae
    142c:	e3073ae1 	movw	r3, #31457	; 0x7ae1
    1430:	e3433f94 	movt	r3, #16276	; 0x3f94
    1434:	eb001bbb 	bl	8328 <__aeabi_dmul>
    1438:	e1a02000 	mov	r2, r0
    143c:	e1a03001 	mov	r3, r1
    1440:	e1a00004 	mov	r0, r4
    1444:	e1a01005 	mov	r1, r5
    1448:	eb001ab2 	bl	7f18 <__adddf3>
    144c:	eb001d44 	bl	8964 <__aeabi_d2f>
    1450:	e5880038 	str	r0, [r8, #56]	; 0x38
    } if (isnan(allParticles[i].vy)) {
    1454:	e3093e4c 	movw	r3, #40524	; 0x9e4c
    1458:	e3403000 	movt	r3, #0
    145c:	e3a02d36 	mov	r2, #3456	; 0xd80
    1460:	e0233692 	mla	r3, r2, r6, r3
    1464:	e5930038 	ldr	r0, [r3, #56]	; 0x38
    1468:	eb000b6e 	bl	4228 <__fpclassifyf>
    146c:	e3500000 	cmp	r0, #0
    1470:	1a000005 	bne	148c <stepSPHVelocities+0x2e0>
        allParticles[i].vy = 0.0;
    1474:	e3093e4c 	movw	r3, #40524	; 0x9e4c
    1478:	e3403000 	movt	r3, #0
    147c:	e3a02d36 	mov	r2, #3456	; 0xd80
    1480:	e0233692 	mla	r3, r2, r6, r3
    1484:	e3a02000 	mov	r2, #0
    1488:	e5832038 	str	r2, [r3, #56]	; 0x38
    }
    allParticles[i].vx *= VELOCITY_DECAY;
    148c:	e3093e4c 	movw	r3, #40524	; 0x9e4c
    1490:	e3403000 	movt	r3, #0
    1494:	e3a02d36 	mov	r2, #3456	; 0xd80
    1498:	e0263692 	mla	r6, r2, r6, r3
    149c:	e5960034 	ldr	r0, [r6, #52]	; 0x34
    14a0:	eb001b73 	bl	8274 <__aeabi_f2d>
    14a4:	e3032d71 	movw	r2, #15729	; 0x3d71
    14a8:	e34d270a 	movt	r2, #55050	; 0xd70a
    14ac:	e30730a3 	movw	r3, #28835	; 0x70a3
    14b0:	e3433fed 	movt	r3, #16365	; 0x3fed
    14b4:	eb001b9b 	bl	8328 <__aeabi_dmul>
    14b8:	eb001d29 	bl	8964 <__aeabi_d2f>
    allParticles[i].vx *= VELOCITY_DECAY;
    14bc:	eb001b6c 	bl	8274 <__aeabi_f2d>
    14c0:	e3032d71 	movw	r2, #15729	; 0x3d71
    14c4:	e34d270a 	movt	r2, #55050	; 0xd70a
    14c8:	e30730a3 	movw	r3, #28835	; 0x70a3
    14cc:	e3433fed 	movt	r3, #16365	; 0x3fed
    14d0:	eb001b94 	bl	8328 <__aeabi_dmul>
    14d4:	eb001d22 	bl	8964 <__aeabi_d2f>
    14d8:	e1a01000 	mov	r1, r0
    14dc:	e5860034 	str	r0, [r6, #52]	; 0x34
    allParticles[i].colour = hueToRGB565(WATER_HUE-sqrt(allParticles[i].vx*allParticles[i].vx + allParticles[i].vy*allParticles[i].vy)/VELOCITY_COLOUR_SENSITIVITY);
    14e0:	e5964038 	ldr	r4, [r6, #56]	; 0x38
    14e4:	eb001df1 	bl	8cb0 <__aeabi_fmul>
    14e8:	e1a05000 	mov	r5, r0
    14ec:	e1a00004 	mov	r0, r4
    14f0:	e1a01004 	mov	r1, r4
    14f4:	eb001ded 	bl	8cb0 <__aeabi_fmul>
    14f8:	e1a01000 	mov	r1, r0
    14fc:	e1a00005 	mov	r0, r5
    1500:	eb001d42 	bl	8a10 <__addsf3>
    1504:	eb001b5a 	bl	8274 <__aeabi_f2d>
    1508:	eb000ca0 	bl	4790 <sqrt>
    150c:	e3a02000 	mov	r2, #0
    1510:	e3a03000 	mov	r3, #0
    1514:	e3443034 	movt	r3, #16436	; 0x4034
    1518:	eb001c26 	bl	85b8 <__aeabi_ddiv>
    151c:	e1a02000 	mov	r2, r0
    1520:	e1a03001 	mov	r3, r1
    1524:	e30a03d7 	movw	r0, #41943	; 0xa3d7
    1528:	e3430d70 	movt	r0, #15728	; 0x3d70
    152c:	e30d170a 	movw	r1, #55050	; 0xd70a
    1530:	e3431fe3 	movt	r1, #16355	; 0x3fe3
    1534:	eb001a76 	bl	7f14 <__aeabi_dsub>
    1538:	eb001d09 	bl	8964 <__aeabi_d2f>
    153c:	ebfffb46 	bl	25c <hueToRGB565>
    1540:	e3003d94 	movw	r3, #3476	; 0xd94
    1544:	e18600b3 	strh	r0, [r6, r3]
    1548:	e8bd81f0 	pop	{r4, r5, r6, r7, r8, pc}

0000154c <calculateSPHAccelerations>:

}

void calculateSPHAccelerations(int i) {
    154c:	e92d4ff0 	push	{r4, r5, r6, r7, r8, r9, r10, r11, lr}
    1550:	e24dd05c 	sub	sp, sp, #92	; 0x5c
    1554:	e1a09000 	mov	r9, r0

	allParticles[i].ax = 0;
    1558:	e3093e4c 	movw	r3, #40524	; 0x9e4c
    155c:	e3403000 	movt	r3, #0
    1560:	e3a04d36 	mov	r4, #3456	; 0xd80
    1564:	e0243094 	mla	r4, r4, r0, r3
    1568:	e3a03000 	mov	r3, #0
    156c:	e584303c 	str	r3, [r4, #60]	; 0x3c
    allParticles[i].ay = G; // Gravitational Acceleration
    1570:	e3a03101 	mov	r3, #1073741824	; 0x40000000
    1574:	e5843040 	str	r3, [r4, #64]	; 0x40
    float x_ij, q;

    // if (-EPSILON < allParticles[i].density < EPSILON) {
    //     allParticles[i].density = EPSILON;
    // }
    float pressureRatio_i = allParticles[i].pressure / (allParticles[i].density * allParticles[i].density);
    1578:	e5941048 	ldr	r1, [r4, #72]	; 0x48
    157c:	e1a00001 	mov	r0, r1
    1580:	eb001dca 	bl	8cb0 <__aeabi_fmul>
    1584:	e1a01000 	mov	r1, r0
    1588:	e5940044 	ldr	r0, [r4, #68]	; 0x44
    158c:	eb001e2d 	bl	8e48 <__aeabi_fdiv>
    1590:	e58d003c 	str	r0, [sp, #60]	; 0x3c
    float inv_rho_j, pressureRatio_j;

    for(int nbIdx = 0; nbIdx < 3; nbIdx++){

        int buck = allParticles[i].bucketIndexes[nbIdx];
    1594:	e5943d98 	ldr	r3, [r4, #3480]	; 0xd98
        if (buck<0 || buck>=NUM_BUCKETS) break;
    1598:	e353003f 	cmp	r3, #63	; 0x3f
    159c:	8a0000ef 	bhi	1960 <calculateSPHAccelerations+0x414>
        for (int pos_j = 0; pos_j < numElementsInBucket_even[buck]; pos_j++) {
        
            int j = buckets_even[buck][pos_j];
            if (i==j) continue;

            if (lastSeen[i][j] == timeStep || lastSeen[j][i] == timeStep) continue;
    15a0:	e3012a6c 	movw	r2, #6764	; 0x1a6c
    15a4:	e3402010 	movt	r2, #16
    15a8:	e51287bc 	ldr	r8, [r2, #-1980]	; 0xfffff844
            // if(-EPSILON < x_ij < EPSILON) {
            //     x_ij = EPSILON;
            // }
            x_ij2 = x_ij*x_ij;

            GRADW_ijx = alpha * dx * q / (x_ij * h);
    15ac:	e3092e4c 	movw	r2, #40524	; 0x9e4c
    15b0:	e3402000 	movt	r2, #0
    15b4:	e5920018 	ldr	r0, [r2, #24]
    15b8:	e58d0038 	str	r0, [sp, #56]	; 0x38
    15bc:	e5921014 	ldr	r1, [r2, #20]
    15c0:	e58d1040 	str	r1, [sp, #64]	; 0x40
            // Viscosity Acceleration

            dvx = allParticles[i].vx - allParticles[j].vx;
            dvy = allParticles[i].vy - allParticles[j].vy;

            viscosScale = VISCOSITY * inv_rho_j * (dx*GRADW_ijx + dy*GRADW_ijy) / (x_ij2+nu);
    15c4:	e5920020 	ldr	r0, [r2, #32]
    15c8:	e58d0044 	str	r0, [sp, #68]	; 0x44
    allParticles[i].vx *= VELOCITY_DECAY;
    allParticles[i].colour = hueToRGB565(WATER_HUE-sqrt(allParticles[i].vx*allParticles[i].vx + allParticles[i].vy*allParticles[i].vy)/VELOCITY_COLOUR_SENSITIVITY);

}

void calculateSPHAccelerations(int i) {
    15cc:	e2822024 	add	r2, r2, #36	; 0x24
    15d0:	e3a01d36 	mov	r1, #3456	; 0xd80
    15d4:	e0010991 	mul	r1, r1, r9
    15d8:	e0820001 	add	r0, r2, r1
    15dc:	e2800ed7 	add	r0, r0, #3440	; 0xd70
    15e0:	e2800004 	add	r0, r0, #4
    15e4:	e58d0048 	str	r0, [sp, #72]	; 0x48
    15e8:	e2822ed7 	add	r2, r2, #3440	; 0xd70
    15ec:	e282200c 	add	r2, r2, #12
    15f0:	e0822001 	add	r2, r2, r1
    15f4:	e58d2050 	str	r2, [sp, #80]	; 0x50
    for(int nbIdx = 0; nbIdx < 3; nbIdx++){

        int buck = allParticles[i].bucketIndexes[nbIdx];
        if (buck<0 || buck>=NUM_BUCKETS) break;

        for (int pos_j = 0; pos_j < numElementsInBucket_even[buck]; pos_j++) {
    15f8:	e3011a6c 	movw	r1, #6764	; 0x1a6c
    15fc:	e3401010 	movt	r1, #16
    1600:	e58d104c 	str	r1, [sp, #76]	; 0x4c
    allParticles[i].vx *= VELOCITY_DECAY;
    allParticles[i].colour = hueToRGB565(WATER_HUE-sqrt(allParticles[i].vx*allParticles[i].vx + allParticles[i].vy*allParticles[i].vy)/VELOCITY_COLOUR_SENSITIVITY);

}

void calculateSPHAccelerations(int i) {
    1604:	e2412e6b 	sub	r2, r1, #1712	; 0x6b0
    1608:	e2422008 	sub	r2, r2, #8
    160c:	e58d2054 	str	r2, [sp, #84]	; 0x54
        for (int pos_j = 0; pos_j < numElementsInBucket_even[buck]; pos_j++) {
        
            int j = buckets_even[buck][pos_j];
            if (i==j) continue;

            if (lastSeen[i][j] == timeStep || lastSeen[j][i] == timeStep) continue;
    1610:	e301bbac 	movw	r11, #7084	; 0x1bac
    1614:	e340b00b 	movt	r11, #11
    1618:	e3a020c8 	mov	r2, #200	; 0xc8
    161c:	e00a0992 	mul	r10, r2, r9
            lastSeen[i][j] = timeStep;
            lastSeen[j][i] = timeStep;

            if (!allParticles[i].neighbours[j]) continue; // Dont check non-neighbours
    1620:	e3090e4c 	movw	r0, #40524	; 0x9e4c
    1624:	e3400000 	movt	r0, #0
    1628:	e58d0010 	str	r0, [sp, #16]
    162c:	e58d4004 	str	r4, [sp, #4]
    1630:	e1a0200a 	mov	r2, r10
    1634:	e1a0a009 	mov	r10, r9
    1638:	e1a09002 	mov	r9, r2
    163c:	ea000004 	b	1654 <calculateSPHAccelerations+0x108>
    float pressureRatio_i = allParticles[i].pressure / (allParticles[i].density * allParticles[i].density);
    float inv_rho_j, pressureRatio_j;

    for(int nbIdx = 0; nbIdx < 3; nbIdx++){

        int buck = allParticles[i].bucketIndexes[nbIdx];
    1640:	e59d2048 	ldr	r2, [sp, #72]	; 0x48
    1644:	e5b23004 	ldr	r3, [r2, #4]!
    1648:	e58d2048 	str	r2, [sp, #72]	; 0x48
        if (buck<0 || buck>=NUM_BUCKETS) break;
    164c:	e353003f 	cmp	r3, #63	; 0x3f
    1650:	8a0000c1 	bhi	195c <calculateSPHAccelerations+0x410>

        for (int pos_j = 0; pos_j < numElementsInBucket_even[buck]; pos_j++) {
    1654:	e59d004c 	ldr	r0, [sp, #76]	; 0x4c
    1658:	e0802103 	add	r2, r0, r3, lsl #2
    165c:	e51227b8 	ldr	r2, [r2, #-1976]	; 0xfffff848
    1660:	e58d2000 	str	r2, [sp]
    1664:	e3520000 	cmp	r2, #0
    1668:	da0000b5 	ble	1944 <calculateSPHAccelerations+0x3f8>
    allParticles[i].vx *= VELOCITY_DECAY;
    allParticles[i].colour = hueToRGB565(WATER_HUE-sqrt(allParticles[i].vx*allParticles[i].vx + allParticles[i].vy*allParticles[i].vy)/VELOCITY_COLOUR_SENSITIVITY);

}

void calculateSPHAccelerations(int i) {
    166c:	e3a02e32 	mov	r2, #800	; 0x320
    1670:	e59d1054 	ldr	r1, [sp, #84]	; 0x54
    1674:	e0231392 	mla	r3, r2, r3, r1
    1678:	e2435004 	sub	r5, r3, #4
    167c:	e3a04000 	mov	r4, #0
        for (int pos_j = 0; pos_j < numElementsInBucket_even[buck]; pos_j++) {
        
            int j = buckets_even[buck][pos_j];
            if (i==j) continue;

            if (lastSeen[i][j] == timeStep || lastSeen[j][i] == timeStep) continue;
    1680:	e3006ec4 	movw	r6, #3780	; 0xec4
            lastSeen[i][j] = timeStep;
            lastSeen[j][i] = timeStep;

            if (!allParticles[i].neighbours[j]) continue; // Dont check non-neighbours
            if (allParticles[i].neighbourDistances[j] == 0) continue; // Everything goes to zero if no distance
    1684:	e3a03e36 	mov	r3, #864	; 0x360
    1688:	e0030a93 	mul	r3, r3, r10
    168c:	e58d3014 	str	r3, [sp, #20]
        int buck = allParticles[i].bucketIndexes[nbIdx];
        if (buck<0 || buck>=NUM_BUCKETS) break;

        for (int pos_j = 0; pos_j < numElementsInBucket_even[buck]; pos_j++) {
        
            int j = buckets_even[buck][pos_j];
    1690:	e5b57004 	ldr	r7, [r5, #4]!
            if (i==j) continue;
    1694:	e15a0007 	cmp	r10, r7
    1698:	0a0000a5 	beq	1934 <calculateSPHAccelerations+0x3e8>

            if (lastSeen[i][j] == timeStep || lastSeen[j][i] == timeStep) continue;
    169c:	e0893007 	add	r3, r9, r7
    16a0:	e08b3103 	add	r3, r11, r3, lsl #2
    16a4:	e7933006 	ldr	r3, [r3, r6]
    16a8:	e1530008 	cmp	r3, r8
    16ac:	0a0000a0 	beq	1934 <calculateSPHAccelerations+0x3e8>
    16b0:	e3a020c8 	mov	r2, #200	; 0xc8
    16b4:	e023a792 	mla	r3, r2, r7, r10
    16b8:	e08b3103 	add	r3, r11, r3, lsl #2
    16bc:	e7933006 	ldr	r3, [r3, r6]
    16c0:	e1580003 	cmp	r8, r3
    16c4:	0a00009a 	beq	1934 <calculateSPHAccelerations+0x3e8>
            lastSeen[i][j] = timeStep;
    16c8:	e0893007 	add	r3, r9, r7
    16cc:	e08b3103 	add	r3, r11, r3, lsl #2
    16d0:	e7838006 	str	r8, [r3, r6]
            lastSeen[j][i] = timeStep;
    16d4:	e023a792 	mla	r3, r2, r7, r10
    16d8:	e08b3103 	add	r3, r11, r3, lsl #2
    16dc:	e7838006 	str	r8, [r3, r6]

            if (!allParticles[i].neighbours[j]) continue; // Dont check non-neighbours
    16e0:	e59d0004 	ldr	r0, [sp, #4]
    16e4:	e0803007 	add	r3, r0, r7
    16e8:	e5d3304c 	ldrb	r3, [r3, #76]	; 0x4c
    16ec:	e3530000 	cmp	r3, #0
    16f0:	0a00008f 	beq	1934 <calculateSPHAccelerations+0x3e8>
            if (allParticles[i].neighbourDistances[j] == 0) continue; // Everything goes to zero if no distance
    16f4:	e59d1014 	ldr	r1, [sp, #20]
    16f8:	e0813007 	add	r3, r1, r7
    16fc:	e59d2010 	ldr	r2, [sp, #16]
    1700:	e0823103 	add	r3, r2, r3, lsl #2
    1704:	e5933a74 	ldr	r3, [r3, #2676]	; 0xa74
    1708:	e58d3008 	str	r3, [sp, #8]
    170c:	e1a00003 	mov	r0, r3
    1710:	e3a01000 	mov	r1, #0
    1714:	eb001e4a 	bl	9044 <__aeabi_fcmpeq>
    1718:	e3500000 	cmp	r0, #0
    171c:	1a000084 	bne	1934 <calculateSPHAccelerations+0x3e8>

            q = allParticles[i].gradQ[j];
    1720:	e59d0014 	ldr	r0, [sp, #20]
    1724:	e0803007 	add	r3, r0, r7
    1728:	e59d1010 	ldr	r1, [sp, #16]
    172c:	e0813103 	add	r3, r1, r3, lsl #2
    1730:	e5933114 	ldr	r3, [r3, #276]	; 0x114
    1734:	e58d300c 	str	r3, [sp, #12]
            if(!q) continue;
    1738:	e1a00003 	mov	r0, r3
    173c:	e3a01000 	mov	r1, #0
    1740:	eb001e3f 	bl	9044 <__aeabi_fcmpeq>
    1744:	e3500000 	cmp	r0, #0
    1748:	1a000079 	bne	1934 <calculateSPHAccelerations+0x3e8>

            dx = allParticles[i].neighbourDXs[j];
    174c:	e59d2014 	ldr	r2, [sp, #20]
    1750:	e0823007 	add	r3, r2, r7
    1754:	e59d0010 	ldr	r0, [sp, #16]
    1758:	e0802103 	add	r2, r0, r3, lsl #2
    175c:	e5922434 	ldr	r2, [r2, #1076]	; 0x434
    1760:	e58d2018 	str	r2, [sp, #24]
            dy = allParticles[i].neighbourDYs[j];
    1764:	e0803103 	add	r3, r0, r3, lsl #2
    1768:	e5933754 	ldr	r3, [r3, #1876]	; 0x754
    176c:	e58d3028 	str	r3, [sp, #40]	; 0x28
            // if(-EPSILON < x_ij < EPSILON) {
            //     x_ij = EPSILON;
            // }
            x_ij2 = x_ij*x_ij;

            GRADW_ijx = alpha * dx * q / (x_ij * h);
    1770:	e59d0008 	ldr	r0, [sp, #8]
    1774:	e59d1040 	ldr	r1, [sp, #64]	; 0x40
    1778:	eb001d4c 	bl	8cb0 <__aeabi_fmul>
    177c:	e58d0020 	str	r0, [sp, #32]
    1780:	e59d0038 	ldr	r0, [sp, #56]	; 0x38
    1784:	e59d1018 	ldr	r1, [sp, #24]
    1788:	eb001d48 	bl	8cb0 <__aeabi_fmul>
    178c:	e59d100c 	ldr	r1, [sp, #12]
    1790:	eb001d46 	bl	8cb0 <__aeabi_fmul>
    1794:	e59d1020 	ldr	r1, [sp, #32]
    1798:	eb001daa 	bl	8e48 <__aeabi_fdiv>
    179c:	e58d002c 	str	r0, [sp, #44]	; 0x2c
            GRADW_ijy = alpha * dy * q / (x_ij * h);
    17a0:	e59d0028 	ldr	r0, [sp, #40]	; 0x28
    17a4:	e59d1038 	ldr	r1, [sp, #56]	; 0x38
    17a8:	eb001d40 	bl	8cb0 <__aeabi_fmul>
    17ac:	e59d100c 	ldr	r1, [sp, #12]
    17b0:	eb001d3e 	bl	8cb0 <__aeabi_fmul>
    17b4:	e59d1020 	ldr	r1, [sp, #32]
    17b8:	eb001da2 	bl	8e48 <__aeabi_fdiv>
    17bc:	e58d0020 	str	r0, [sp, #32]

            // Pressure Acceleration

            // if (-EPSILON < allParticles[j].density < EPSILON) continue;
            inv_rho_j = 1/allParticles[j].density;
    17c0:	e3a01d36 	mov	r1, #3456	; 0xd80
    17c4:	e59d2010 	ldr	r2, [sp, #16]
    17c8:	e0272791 	mla	r7, r1, r7, r2
    17cc:	e58d700c 	str	r7, [sp, #12]
    17d0:	e3a005fe 	mov	r0, #1065353216	; 0x3f800000
    17d4:	e5971048 	ldr	r1, [r7, #72]	; 0x48
    17d8:	eb001d9a 	bl	8e48 <__aeabi_fdiv>
    17dc:	e1a07000 	mov	r7, r0
            pressureRatio_j = allParticles[j].pressure * inv_rho_j * inv_rho_j;
    17e0:	e59d300c 	ldr	r3, [sp, #12]
    17e4:	e5931044 	ldr	r1, [r3, #68]	; 0x44
    17e8:	eb001d30 	bl	8cb0 <__aeabi_fmul>
    17ec:	e1a01007 	mov	r1, r7
    17f0:	eb001d2e 	bl	8cb0 <__aeabi_fmul>
    17f4:	e1a01000 	mov	r1, r0
            allParticles[i].ax -= (pressureRatio_i + pressureRatio_j) * GRADW_ijx;
    17f8:	e59d003c 	ldr	r0, [sp, #60]	; 0x3c
    17fc:	eb001c83 	bl	8a10 <__addsf3>
    1800:	e58d0024 	str	r0, [sp, #36]	; 0x24
    1804:	e59d102c 	ldr	r1, [sp, #44]	; 0x2c
    1808:	eb001d28 	bl	8cb0 <__aeabi_fmul>
    180c:	e1a01000 	mov	r1, r0
    1810:	e59d2004 	ldr	r2, [sp, #4]
    1814:	e592003c 	ldr	r0, [r2, #60]	; 0x3c
    1818:	eb001c7b 	bl	8a0c <__aeabi_fsub>
    181c:	e59d3004 	ldr	r3, [sp, #4]
    1820:	e583003c 	str	r0, [r3, #60]	; 0x3c
            allParticles[i].ay -= (pressureRatio_i + pressureRatio_j) * GRADW_ijy;
    1824:	e59d0020 	ldr	r0, [sp, #32]
    1828:	e59d1024 	ldr	r1, [sp, #36]	; 0x24
    182c:	eb001d1f 	bl	8cb0 <__aeabi_fmul>
    1830:	e1a01000 	mov	r1, r0
    1834:	e59d2004 	ldr	r2, [sp, #4]
    1838:	e5920040 	ldr	r0, [r2, #64]	; 0x40
    183c:	eb001c72 	bl	8a0c <__aeabi_fsub>
    1840:	e59d3004 	ldr	r3, [sp, #4]
    1844:	e5830040 	str	r0, [r3, #64]	; 0x40

            // Viscosity Acceleration

            dvx = allParticles[i].vx - allParticles[j].vx;
            dvy = allParticles[i].vy - allParticles[j].vy;
    1848:	e5930038 	ldr	r0, [r3, #56]	; 0x38
    184c:	e59d200c 	ldr	r2, [sp, #12]
    1850:	e5921038 	ldr	r1, [r2, #56]	; 0x38
    1854:	eb001c6c 	bl	8a0c <__aeabi_fsub>
    1858:	e58d0024 	str	r0, [sp, #36]	; 0x24

            viscosScale = VISCOSITY * inv_rho_j * (dx*GRADW_ijx + dy*GRADW_ijy) / (x_ij2+nu);
    185c:	e1a00007 	mov	r0, r7
    1860:	eb001a83 	bl	8274 <__aeabi_f2d>
    1864:	e1cd03f0 	strd	r0, [sp, #48]	; 0x30
    1868:	e59d0018 	ldr	r0, [sp, #24]
    186c:	e59d102c 	ldr	r1, [sp, #44]	; 0x2c
    1870:	eb001d0e 	bl	8cb0 <__aeabi_fmul>
    1874:	e1a07000 	mov	r7, r0
    1878:	e59d0028 	ldr	r0, [sp, #40]	; 0x28
    187c:	e59d1020 	ldr	r1, [sp, #32]
    1880:	eb001d0a 	bl	8cb0 <__aeabi_fmul>
    1884:	e1a01000 	mov	r1, r0
    1888:	e1a00007 	mov	r0, r7
    188c:	eb001c5f 	bl	8a10 <__addsf3>
    1890:	eb001a77 	bl	8274 <__aeabi_f2d>
    1894:	e1a02000 	mov	r2, r0
    1898:	e1a03001 	mov	r3, r1
    189c:	e1cd03d0 	ldrd	r0, [sp, #48]	; 0x30
    18a0:	eb001aa0 	bl	8328 <__aeabi_dmul>
    18a4:	e1cd01f8 	strd	r0, [sp, #24]

            x_ij = allParticles[i].neighbourDistances[j];
            // if(-EPSILON < x_ij < EPSILON) {
            //     x_ij = EPSILON;
            // }
            x_ij2 = x_ij*x_ij;
    18a8:	e59d0008 	ldr	r0, [sp, #8]
    18ac:	e1a01000 	mov	r1, r0
    18b0:	eb001cfe 	bl	8cb0 <__aeabi_fmul>
            // Viscosity Acceleration

            dvx = allParticles[i].vx - allParticles[j].vx;
            dvy = allParticles[i].vy - allParticles[j].vy;

            viscosScale = VISCOSITY * inv_rho_j * (dx*GRADW_ijx + dy*GRADW_ijy) / (x_ij2+nu);
    18b4:	e59d1044 	ldr	r1, [sp, #68]	; 0x44
    18b8:	eb001c54 	bl	8a10 <__addsf3>
    18bc:	eb001a6c 	bl	8274 <__aeabi_f2d>
    18c0:	e1a02000 	mov	r2, r0
    18c4:	e1a03001 	mov	r3, r1
    18c8:	e1cd01d8 	ldrd	r0, [sp, #24]
    18cc:	eb001b39 	bl	85b8 <__aeabi_ddiv>
    18d0:	eb001c23 	bl	8964 <__aeabi_d2f>
    18d4:	e1a07000 	mov	r7, r0
            allParticles[i].ax -= (pressureRatio_i + pressureRatio_j) * GRADW_ijx;
            allParticles[i].ay -= (pressureRatio_i + pressureRatio_j) * GRADW_ijy;

            // Viscosity Acceleration

            dvx = allParticles[i].vx - allParticles[j].vx;
    18d8:	e59d3004 	ldr	r3, [sp, #4]
    18dc:	e5930034 	ldr	r0, [r3, #52]	; 0x34
    18e0:	e59d200c 	ldr	r2, [sp, #12]
    18e4:	e5921034 	ldr	r1, [r2, #52]	; 0x34
    18e8:	eb001c47 	bl	8a0c <__aeabi_fsub>
    18ec:	e1a01000 	mov	r1, r0
            dvy = allParticles[i].vy - allParticles[j].vy;

            viscosScale = VISCOSITY * inv_rho_j * (dx*GRADW_ijx + dy*GRADW_ijy) / (x_ij2+nu);
            allParticles[i].ax += viscosScale * dvx;
    18f0:	e1a00007 	mov	r0, r7
    18f4:	eb001ced 	bl	8cb0 <__aeabi_fmul>
    18f8:	e1a01000 	mov	r1, r0
    18fc:	e59d3004 	ldr	r3, [sp, #4]
    1900:	e593003c 	ldr	r0, [r3, #60]	; 0x3c
    1904:	eb001c41 	bl	8a10 <__addsf3>
    1908:	e59d1004 	ldr	r1, [sp, #4]
    190c:	e581003c 	str	r0, [r1, #60]	; 0x3c
            allParticles[i].ay += viscosScale * dvy;
    1910:	e1a00007 	mov	r0, r7
    1914:	e59d1024 	ldr	r1, [sp, #36]	; 0x24
    1918:	eb001ce4 	bl	8cb0 <__aeabi_fmul>
    191c:	e1a01000 	mov	r1, r0
    1920:	e59d2004 	ldr	r2, [sp, #4]
    1924:	e5920040 	ldr	r0, [r2, #64]	; 0x40
    1928:	eb001c38 	bl	8a10 <__addsf3>
    192c:	e59d3004 	ldr	r3, [sp, #4]
    1930:	e5830040 	str	r0, [r3, #64]	; 0x40
    for(int nbIdx = 0; nbIdx < 3; nbIdx++){

        int buck = allParticles[i].bucketIndexes[nbIdx];
        if (buck<0 || buck>=NUM_BUCKETS) break;

        for (int pos_j = 0; pos_j < numElementsInBucket_even[buck]; pos_j++) {
    1934:	e2844001 	add	r4, r4, #1
    1938:	e59d0000 	ldr	r0, [sp]
    193c:	e1540000 	cmp	r4, r0
    1940:	baffff52 	blt	1690 <calculateSPHAccelerations+0x144>
    //     allParticles[i].density = EPSILON;
    // }
    float pressureRatio_i = allParticles[i].pressure / (allParticles[i].density * allParticles[i].density);
    float inv_rho_j, pressureRatio_j;

    for(int nbIdx = 0; nbIdx < 3; nbIdx++){
    1944:	e59d1048 	ldr	r1, [sp, #72]	; 0x48
    1948:	e59d2050 	ldr	r2, [sp, #80]	; 0x50
    194c:	e1510002 	cmp	r1, r2
    1950:	1affff3a 	bne	1640 <calculateSPHAccelerations+0xf4>
    1954:	e1a0900a 	mov	r9, r10
    1958:	ea000000 	b	1960 <calculateSPHAccelerations+0x414>
    195c:	e1a0900a 	mov	r9, r10

        }
    }

    // Check for nan
    if(isnan(allParticles[i].ax) || isnan(allParticles[i].ay)) {
    1960:	e3093e4c 	movw	r3, #40524	; 0x9e4c
    1964:	e3403000 	movt	r3, #0
    1968:	e3a02d36 	mov	r2, #3456	; 0xd80
    196c:	e0233992 	mla	r3, r2, r9, r3
    1970:	e593003c 	ldr	r0, [r3, #60]	; 0x3c
    1974:	eb000a2b 	bl	4228 <__fpclassifyf>
    1978:	e3500000 	cmp	r0, #0
    197c:	0a000007 	beq	19a0 <calculateSPHAccelerations+0x454>
    1980:	e3093e4c 	movw	r3, #40524	; 0x9e4c
    1984:	e3403000 	movt	r3, #0
    1988:	e3a02d36 	mov	r2, #3456	; 0xd80
    198c:	e0233992 	mla	r3, r2, r9, r3
    1990:	e5930040 	ldr	r0, [r3, #64]	; 0x40
    1994:	eb000a23 	bl	4228 <__fpclassifyf>
    1998:	e3500000 	cmp	r0, #0
    199c:	1a000007 	bne	19c0 <calculateSPHAccelerations+0x474>
        allParticles[i].ax = 0;
    19a0:	e3093e4c 	movw	r3, #40524	; 0x9e4c
    19a4:	e3403000 	movt	r3, #0
    19a8:	e3a02d36 	mov	r2, #3456	; 0xd80
    19ac:	e0233992 	mla	r3, r2, r9, r3
    19b0:	e3a02000 	mov	r2, #0
    19b4:	e583203c 	str	r2, [r3, #60]	; 0x3c
        allParticles[i].ay = G;
    19b8:	e3a02101 	mov	r2, #1073741824	; 0x40000000
    19bc:	e5832040 	str	r2, [r3, #64]	; 0x40
    }
    // Mouse Acceleration
    if(!mData.left) return;
    19c0:	e3093e4c 	movw	r3, #40524	; 0x9e4c
    19c4:	e3403000 	movt	r3, #0
    19c8:	e5d3300c 	ldrb	r3, [r3, #12]
    19cc:	e3530000 	cmp	r3, #0
    19d0:	0a000058 	beq	1b38 <calculateSPHAccelerations+0x5ec>
    // printf("HERE");
    dx = (float)allParticles[i].x - (float)mData.x;
    19d4:	e3094e4c 	movw	r4, #40524	; 0x9e4c
    19d8:	e3404000 	movt	r4, #0
    19dc:	e3a05d36 	mov	r5, #3456	; 0xd80
    19e0:	e0254995 	mla	r5, r5, r9, r4
    19e4:	e5950024 	ldr	r0, [r5, #36]	; 0x24
    19e8:	eb001c79 	bl	8bd4 <__aeabi_i2f>
    19ec:	e1a06000 	mov	r6, r0
    19f0:	e5940004 	ldr	r0, [r4, #4]
    19f4:	eb001c76 	bl	8bd4 <__aeabi_i2f>
    19f8:	e1a01000 	mov	r1, r0
    19fc:	e1a00006 	mov	r0, r6
    1a00:	eb001c01 	bl	8a0c <__aeabi_fsub>
    1a04:	e1a0b000 	mov	r11, r0
    dy = (float)allParticles[i].y - (float)mData.y;
    1a08:	e5950028 	ldr	r0, [r5, #40]	; 0x28
    1a0c:	eb001c70 	bl	8bd4 <__aeabi_i2f>
    1a10:	e1a05000 	mov	r5, r0
    1a14:	e5940008 	ldr	r0, [r4, #8]
    1a18:	eb001c6d 	bl	8bd4 <__aeabi_i2f>
    1a1c:	e1a01000 	mov	r1, r0
    1a20:	e1a00005 	mov	r0, r5
    1a24:	eb001bf8 	bl	8a0c <__aeabi_fsub>
    1a28:	e1a08000 	mov	r8, r0
    float mag = sqrt(dx*dx+dy*dy);
    1a2c:	e1a0000b 	mov	r0, r11
    1a30:	e1a0100b 	mov	r1, r11
    1a34:	eb001c9d 	bl	8cb0 <__aeabi_fmul>
    1a38:	e1a04000 	mov	r4, r0
    1a3c:	e1a00008 	mov	r0, r8
    1a40:	e1a01008 	mov	r1, r8
    1a44:	eb001c99 	bl	8cb0 <__aeabi_fmul>
    1a48:	e1a01000 	mov	r1, r0
    1a4c:	e1a00004 	mov	r0, r4
    1a50:	eb001bee 	bl	8a10 <__addsf3>
    1a54:	eb001a06 	bl	8274 <__aeabi_f2d>
    1a58:	eb000b4c 	bl	4790 <sqrt>
    1a5c:	eb001bc0 	bl	8964 <__aeabi_d2f>
    1a60:	e1a04000 	mov	r4, r0
    if (mag < MOUSE_ROE) {
    1a64:	e3a01000 	mov	r1, #0
    1a68:	e34411f0 	movt	r1, #16880	; 0x41f0
    1a6c:	eb001d7a 	bl	905c <__aeabi_fcmplt>
    1a70:	e3500000 	cmp	r0, #0
    1a74:	0a00002f 	beq	1b38 <calculateSPHAccelerations+0x5ec>
        allParticles[i].ax += MOUSE_A_MAG * dx/(mag);
    1a78:	e1a00004 	mov	r0, r4
    1a7c:	eb0019fc 	bl	8274 <__aeabi_f2d>
    1a80:	e1a04000 	mov	r4, r0
    1a84:	e1a05001 	mov	r5, r1
    1a88:	e3093e4c 	movw	r3, #40524	; 0x9e4c
    1a8c:	e3403000 	movt	r3, #0
    1a90:	e3a0ad36 	mov	r10, #3456	; 0xd80
    1a94:	e02a399a 	mla	r10, r10, r9, r3
    1a98:	e59a003c 	ldr	r0, [r10, #60]	; 0x3c
    1a9c:	eb0019f4 	bl	8274 <__aeabi_f2d>
    1aa0:	e1a06000 	mov	r6, r0
    1aa4:	e1a07001 	mov	r7, r1
    1aa8:	e1a0000b 	mov	r0, r11
    1aac:	eb0019f0 	bl	8274 <__aeabi_f2d>
    1ab0:	e3a02000 	mov	r2, #0
    1ab4:	e3a03903 	mov	r3, #49152	; 0xc000
    1ab8:	e3443062 	movt	r3, #16482	; 0x4062
    1abc:	eb001a19 	bl	8328 <__aeabi_dmul>
    1ac0:	e1a02004 	mov	r2, r4
    1ac4:	e1a03005 	mov	r3, r5
    1ac8:	eb001aba 	bl	85b8 <__aeabi_ddiv>
    1acc:	e1a02000 	mov	r2, r0
    1ad0:	e1a03001 	mov	r3, r1
    1ad4:	e1a00006 	mov	r0, r6
    1ad8:	e1a01007 	mov	r1, r7
    1adc:	eb00190d 	bl	7f18 <__adddf3>
    1ae0:	eb001b9f 	bl	8964 <__aeabi_d2f>
    1ae4:	e58a003c 	str	r0, [r10, #60]	; 0x3c
        allParticles[i].ay += MOUSE_A_MAG * dy/(mag);
    1ae8:	e59a0040 	ldr	r0, [r10, #64]	; 0x40
    1aec:	eb0019e0 	bl	8274 <__aeabi_f2d>
    1af0:	e1a06000 	mov	r6, r0
    1af4:	e1a07001 	mov	r7, r1
    1af8:	e1a00008 	mov	r0, r8
    1afc:	eb0019dc 	bl	8274 <__aeabi_f2d>
    1b00:	e3a02000 	mov	r2, #0
    1b04:	e3a03903 	mov	r3, #49152	; 0xc000
    1b08:	e3443062 	movt	r3, #16482	; 0x4062
    1b0c:	eb001a05 	bl	8328 <__aeabi_dmul>
    1b10:	e1a02004 	mov	r2, r4
    1b14:	e1a03005 	mov	r3, r5
    1b18:	eb001aa6 	bl	85b8 <__aeabi_ddiv>
    1b1c:	e1a02000 	mov	r2, r0
    1b20:	e1a03001 	mov	r3, r1
    1b24:	e1a00006 	mov	r0, r6
    1b28:	e1a01007 	mov	r1, r7
    1b2c:	eb0018f9 	bl	7f18 <__adddf3>
    1b30:	eb001b8b 	bl	8964 <__aeabi_d2f>
    1b34:	e58a0040 	str	r0, [r10, #64]	; 0x40
    }

} 
    1b38:	e28dd05c 	add	sp, sp, #92	; 0x5c
    1b3c:	e8bd8ff0 	pop	{r4, r5, r6, r7, r8, r9, r10, r11, pc}

00001b40 <timeStepSPHApproximation>:

void timeStepSPHApproximation(int i, int j) {
    1b40:	e92d4ff8 	push	{r3, r4, r5, r6, r7, r8, r9, r10, r11, lr}
    1b44:	e1a06000 	mov	r6, r0
    1b48:	e1a07001 	mov	r7, r1
    
    if (i==j) return;
    1b4c:	e1500001 	cmp	r0, r1
    1b50:	08bd8ff8 	popeq	{r3, r4, r5, r6, r7, r8, r9, r10, r11, pc}

    float dx, dy;
    float x_ij, q, rho;
    float fp, sp, gradQ;

    dx = allParticles[i].pX - allParticles[j].pX;
    1b54:	e3094e4c 	movw	r4, #40524	; 0x9e4c
    1b58:	e3404000 	movt	r4, #0
    1b5c:	e3a05d36 	mov	r5, #3456	; 0xd80
    1b60:	e0284095 	mla	r8, r5, r0, r4
    1b64:	e0254195 	mla	r5, r5, r1, r4
    1b68:	e598002c 	ldr	r0, [r8, #44]	; 0x2c
    1b6c:	e595102c 	ldr	r1, [r5, #44]	; 0x2c
    1b70:	eb001ba5 	bl	8a0c <__aeabi_fsub>
    1b74:	e1a0a000 	mov	r10, r0
    dy = allParticles[i].pY - allParticles[j].pY;
    1b78:	e5980030 	ldr	r0, [r8, #48]	; 0x30
    1b7c:	e5951030 	ldr	r1, [r5, #48]	; 0x30
    1b80:	eb001ba1 	bl	8a0c <__aeabi_fsub>
    1b84:	e1a08000 	mov	r8, r0
    x_ij = sqrt(dx*dx+dy*dy);
    1b88:	e1a0000a 	mov	r0, r10
    1b8c:	e1a0100a 	mov	r1, r10
    1b90:	eb001c46 	bl	8cb0 <__aeabi_fmul>
    1b94:	e1a05000 	mov	r5, r0
    1b98:	e1a00008 	mov	r0, r8
    1b9c:	e1a01008 	mov	r1, r8
    1ba0:	eb001c42 	bl	8cb0 <__aeabi_fmul>
    1ba4:	e1a01000 	mov	r1, r0
    1ba8:	e1a00005 	mov	r0, r5
    1bac:	eb001b97 	bl	8a10 <__addsf3>
    1bb0:	eb0019af 	bl	8274 <__aeabi_f2d>
    1bb4:	eb000af5 	bl	4790 <sqrt>
    1bb8:	eb001b69 	bl	8964 <__aeabi_d2f>
    1bbc:	e1a0b000 	mov	r11, r0
    
    if (x_ij<ROOT_TWO_SCALE*h) {
    1bc0:	e5949014 	ldr	r9, [r4, #20]
    1bc4:	eb0019aa 	bl	8274 <__aeabi_f2d>
    1bc8:	e1a04000 	mov	r4, r0
    1bcc:	e1a05001 	mov	r5, r1
    1bd0:	e1a00009 	mov	r0, r9
    1bd4:	eb0019a6 	bl	8274 <__aeabi_f2d>
    1bd8:	e30b2439 	movw	r2, #46137	; 0xb439
    1bdc:	e34726c8 	movt	r2, #30408	; 0x76c8
    1be0:	e3093fbe 	movw	r3, #40894	; 0x9fbe
    1be4:	e3433ff6 	movt	r3, #16374	; 0x3ff6
    1be8:	eb0019ce 	bl	8328 <__aeabi_dmul>
    1bec:	e1a02000 	mov	r2, r0
    1bf0:	e1a03001 	mov	r3, r1
    1bf4:	e1a00004 	mov	r0, r4
    1bf8:	e1a01005 	mov	r1, r5
    1bfc:	eb001b29 	bl	88a8 <__aeabi_dcmplt>
    1c00:	e3500000 	cmp	r0, #0
    1c04:	0a000092 	beq	1e54 <timeStepSPHApproximation+0x314>

        allParticles[i].neighbourDXs[j] = dx;
    1c08:	e3093e4c 	movw	r3, #40524	; 0x9e4c
    1c0c:	e3403000 	movt	r3, #0
    1c10:	e3a02e36 	mov	r2, #864	; 0x360
    1c14:	e0217692 	mla	r1, r2, r6, r7
    1c18:	e0830101 	add	r0, r3, r1, lsl #2
    1c1c:	e580a434 	str	r10, [r0, #1076]	; 0x434
        allParticles[i].neighbourDYs[j] = dy;
    1c20:	e5808754 	str	r8, [r0, #1876]	; 0x754
        allParticles[i].neighbourDistances[j] = x_ij;
    1c24:	e580ba74 	str	r11, [r0, #2676]	; 0xa74

        allParticles[j].neighbourDXs[i] = -dx;
    1c28:	e0226792 	mla	r2, r2, r7, r6
    1c2c:	e0831102 	add	r1, r3, r2, lsl #2
    1c30:	e28aa102 	add	r10, r10, #-2147483648	; 0x80000000
    1c34:	e581a434 	str	r10, [r1, #1076]	; 0x434
        allParticles[j].neighbourDYs[i] = -dy;
    1c38:	e2888102 	add	r8, r8, #-2147483648	; 0x80000000
    1c3c:	e5818754 	str	r8, [r1, #1876]	; 0x754
        allParticles[j].neighbourDistances[i] = x_ij;
    1c40:	e581ba74 	str	r11, [r1, #2676]	; 0xa74

        allParticles[i].neighbours[j] = true;
    1c44:	e3a01d36 	mov	r1, #3456	; 0xd80
    1c48:	e0203691 	mla	r0, r1, r6, r3
    1c4c:	e0800007 	add	r0, r0, r7
    1c50:	e3a02001 	mov	r2, #1
    1c54:	e5c0204c 	strb	r2, [r0, #76]	; 0x4c
        allParticles[j].neighbours[i] = true;
    1c58:	e0233791 	mla	r3, r1, r7, r3
    1c5c:	e0833006 	add	r3, r3, r6
    1c60:	e5c3204c 	strb	r2, [r3, #76]	; 0x4c

        q = x_ij/h;
    1c64:	e1a0000b 	mov	r0, r11
    1c68:	e1a01009 	mov	r1, r9
    1c6c:	eb001c75 	bl	8e48 <__aeabi_fdiv>
    1c70:	e1a04000 	mov	r4, r0

        if(q < 1){
    1c74:	e3a015fe 	mov	r1, #1065353216	; 0x3f800000
    1c78:	eb001cf7 	bl	905c <__aeabi_fcmplt>
    1c7c:	e3500000 	cmp	r0, #0
    1c80:	0a000038 	beq	1d68 <timeStepSPHApproximation+0x228>
            fp = pow((2-q), 2);
    1c84:	e3a00101 	mov	r0, #1073741824	; 0x40000000
    1c88:	e1a01004 	mov	r1, r4
    1c8c:	eb001b5e 	bl	8a0c <__aeabi_fsub>
    1c90:	e1a08000 	mov	r8, r0
    1c94:	eb001976 	bl	8274 <__aeabi_f2d>
    1c98:	e1a02000 	mov	r2, r0
    1c9c:	e1a03001 	mov	r3, r1
    1ca0:	eb0019a0 	bl	8328 <__aeabi_dmul>
    1ca4:	eb001b2e 	bl	8964 <__aeabi_d2f>
    1ca8:	e1a05000 	mov	r5, r0
            sp = pow((1-q), 2);
    1cac:	e3a005fe 	mov	r0, #1065353216	; 0x3f800000
    1cb0:	e1a01004 	mov	r1, r4
    1cb4:	eb001b54 	bl	8a0c <__aeabi_fsub>
    1cb8:	e1a0a000 	mov	r10, r0
    1cbc:	eb00196c 	bl	8274 <__aeabi_f2d>
    1cc0:	e1a02000 	mov	r2, r0
    1cc4:	e1a03001 	mov	r3, r1
    1cc8:	eb001996 	bl	8328 <__aeabi_dmul>
    1ccc:	eb001b24 	bl	8964 <__aeabi_d2f>
    1cd0:	e1a04000 	mov	r4, r0

            gradQ = -3 * fp + 12 * sp;
    1cd4:	e1a00005 	mov	r0, r5
    1cd8:	e3a01000 	mov	r1, #0
    1cdc:	e34c1040 	movt	r1, #49216	; 0xc040
    1ce0:	eb001bf2 	bl	8cb0 <__aeabi_fmul>
    1ce4:	e1a09000 	mov	r9, r0
    1ce8:	e1a00004 	mov	r0, r4
    1cec:	e3a01000 	mov	r1, #0
    1cf0:	e3441140 	movt	r1, #16704	; 0x4140
    1cf4:	eb001bed 	bl	8cb0 <__aeabi_fmul>
    1cf8:	e1a01000 	mov	r1, r0
    1cfc:	e1a00009 	mov	r0, r9
    1d00:	eb001b42 	bl	8a10 <__addsf3>
    1d04:	e1a02000 	mov	r2, r0
            allParticles[i].gradQ[j] = gradQ;
    1d08:	e3093e4c 	movw	r3, #40524	; 0x9e4c
    1d0c:	e3403000 	movt	r3, #0
    1d10:	e3a01e36 	mov	r1, #864	; 0x360
    1d14:	e0207691 	mla	r0, r1, r6, r7
    1d18:	e0830100 	add	r0, r3, r0, lsl #2
    1d1c:	e5802114 	str	r2, [r0, #276]	; 0x114
            allParticles[j].gradQ[i] = gradQ;
    1d20:	e0216791 	mla	r1, r1, r7, r6
    1d24:	e0833101 	add	r3, r3, r1, lsl #2
    1d28:	e5832114 	str	r2, [r3, #276]	; 0x114

            q = fp*(2-q) - 4 * sp*(1-q);
    1d2c:	e1a00008 	mov	r0, r8
    1d30:	e1a01005 	mov	r1, r5
    1d34:	eb001bdd 	bl	8cb0 <__aeabi_fmul>
    1d38:	e1a05000 	mov	r5, r0
    1d3c:	e1a00004 	mov	r0, r4
    1d40:	e3a01000 	mov	r1, #0
    1d44:	e3441080 	movt	r1, #16512	; 0x4080
    1d48:	eb001bd8 	bl	8cb0 <__aeabi_fmul>
    1d4c:	e1a01000 	mov	r1, r0
    1d50:	e1a0000a 	mov	r0, r10
    1d54:	eb001bd5 	bl	8cb0 <__aeabi_fmul>
    1d58:	e1a01000 	mov	r1, r0
    1d5c:	e1a00005 	mov	r0, r5
    1d60:	eb001b29 	bl	8a0c <__aeabi_fsub>
    1d64:	ea000029 	b	1e10 <timeStepSPHApproximation+0x2d0>
        } else if (q < 2) {
    1d68:	e1a00004 	mov	r0, r4
    1d6c:	e3a01101 	mov	r1, #1073741824	; 0x40000000
    1d70:	eb001cb9 	bl	905c <__aeabi_fcmplt>
    1d74:	e3500000 	cmp	r0, #0
    1d78:	0a000019 	beq	1de4 <timeStepSPHApproximation+0x2a4>
            fp = pow((2-q), 2);
    1d7c:	e3a00101 	mov	r0, #1073741824	; 0x40000000
    1d80:	e1a01004 	mov	r1, r4
    1d84:	eb001b20 	bl	8a0c <__aeabi_fsub>
    1d88:	e1a05000 	mov	r5, r0
    1d8c:	eb001938 	bl	8274 <__aeabi_f2d>
    1d90:	e1a02000 	mov	r2, r0
    1d94:	e1a03001 	mov	r3, r1
    1d98:	eb001962 	bl	8328 <__aeabi_dmul>
    1d9c:	eb001af0 	bl	8964 <__aeabi_d2f>
    1da0:	e1a04000 	mov	r4, r0

            gradQ = -3 * fp;
    1da4:	e3a01000 	mov	r1, #0
    1da8:	e34c1040 	movt	r1, #49216	; 0xc040
    1dac:	eb001bbf 	bl	8cb0 <__aeabi_fmul>
            allParticles[i].gradQ[j] = gradQ;
    1db0:	e3093e4c 	movw	r3, #40524	; 0x9e4c
    1db4:	e3403000 	movt	r3, #0
    1db8:	e3a0ce36 	mov	r12, #864	; 0x360
    1dbc:	e021769c 	mla	r1, r12, r6, r7
    1dc0:	e0831101 	add	r1, r3, r1, lsl #2
    1dc4:	e5810114 	str	r0, [r1, #276]	; 0x114
            allParticles[j].gradQ[i] = gradQ;
    1dc8:	e02c679c 	mla	r12, r12, r7, r6
    1dcc:	e083310c 	add	r3, r3, r12, lsl #2
    1dd0:	e5830114 	str	r0, [r3, #276]	; 0x114

            q = fp*(2-q);
    1dd4:	e1a00005 	mov	r0, r5
    1dd8:	e1a01004 	mov	r1, r4
    1ddc:	eb001bb3 	bl	8cb0 <__aeabi_fmul>
    1de0:	ea00000a 	b	1e10 <timeStepSPHApproximation+0x2d0>
        } else {
            allParticles[i].gradQ[j] = 0;
    1de4:	e3093e4c 	movw	r3, #40524	; 0x9e4c
    1de8:	e3403000 	movt	r3, #0
    1dec:	e3a01e36 	mov	r1, #864	; 0x360
    1df0:	e0207691 	mla	r0, r1, r6, r7
    1df4:	e0830100 	add	r0, r3, r0, lsl #2
    1df8:	e3a02000 	mov	r2, #0
    1dfc:	e5802114 	str	r2, [r0, #276]	; 0x114
            allParticles[j].gradQ[i] = 0;
    1e00:	e0266791 	mla	r6, r1, r7, r6
    1e04:	e0833106 	add	r3, r3, r6, lsl #2
    1e08:	e5832114 	str	r2, [r3, #276]	; 0x114
            return; // q is zero so save calcs by continuing
    1e0c:	e8bd8ff8 	pop	{r3, r4, r5, r6, r7, r8, r9, r10, r11, pc}
        }

        
        rho = alpha*q;
    1e10:	e3094e4c 	movw	r4, #40524	; 0x9e4c
    1e14:	e3404000 	movt	r4, #0
    1e18:	e5941018 	ldr	r1, [r4, #24]
    1e1c:	eb001ba3 	bl	8cb0 <__aeabi_fmul>
    1e20:	e1a05000 	mov	r5, r0
        allParticles[i].density += rho;
    1e24:	e3a08d36 	mov	r8, #3456	; 0xd80
    1e28:	e0264698 	mla	r6, r8, r6, r4
    1e2c:	e5960048 	ldr	r0, [r6, #72]	; 0x48
    1e30:	e1a01005 	mov	r1, r5
    1e34:	eb001af5 	bl	8a10 <__addsf3>
    1e38:	e5860048 	str	r0, [r6, #72]	; 0x48
        allParticles[j].density += rho;
    1e3c:	e0274798 	mla	r7, r8, r7, r4
    1e40:	e5970048 	ldr	r0, [r7, #72]	; 0x48
    1e44:	e1a01005 	mov	r1, r5
    1e48:	eb001af0 	bl	8a10 <__addsf3>
    1e4c:	e5870048 	str	r0, [r7, #72]	; 0x48
    1e50:	e8bd8ff8 	pop	{r3, r4, r5, r6, r7, r8, r9, r10, r11, pc}

    } else {
        allParticles[i].neighbours[j] = false;
    1e54:	e3093e4c 	movw	r3, #40524	; 0x9e4c
    1e58:	e3403000 	movt	r3, #0
    1e5c:	e3a01d36 	mov	r1, #3456	; 0xd80
    1e60:	e0203691 	mla	r0, r1, r6, r3
    1e64:	e0800007 	add	r0, r0, r7
    1e68:	e3a02000 	mov	r2, #0
    1e6c:	e5c0204c 	strb	r2, [r0, #76]	; 0x4c
        allParticles[j].neighbours[i] = false;
    1e70:	e0273791 	mla	r7, r1, r7, r3
    1e74:	e0876006 	add	r6, r7, r6
    1e78:	e5c6204c 	strb	r2, [r6, #76]	; 0x4c
    1e7c:	e8bd8ff8 	pop	{r3, r4, r5, r6, r7, r8, r9, r10, r11, pc}

00001e80 <generalParticleUpdate>:
    }

}

void generalParticleUpdate(int i) {
    1e80:	e92d4038 	push	{r3, r4, r5, lr}
    1e84:	e1a04000 	mov	r4, r0
    
    allParticles[i].pressure = K * pow((allParticles[i].density*inv_rho_naught), 7) - K;
    1e88:	e3093e4c 	movw	r3, #40524	; 0x9e4c
    1e8c:	e3403000 	movt	r3, #0
    1e90:	e3a05d36 	mov	r5, #3456	; 0xd80
    1e94:	e0253095 	mla	r5, r5, r0, r3
    1e98:	e5950048 	ldr	r0, [r5, #72]	; 0x48
    1e9c:	e593101c 	ldr	r1, [r3, #28]
    1ea0:	eb001b82 	bl	8cb0 <__aeabi_fmul>
    1ea4:	eb0018f2 	bl	8274 <__aeabi_f2d>
    1ea8:	e3a02000 	mov	r2, #0
    1eac:	e3a03000 	mov	r3, #0
    1eb0:	e344301c 	movt	r3, #16412	; 0x401c
    1eb4:	eb0008f5 	bl	4290 <pow>
    1eb8:	e3a02000 	mov	r2, #0
    1ebc:	e3a03000 	mov	r3, #0
    1ec0:	e3443020 	movt	r3, #16416	; 0x4020
    1ec4:	eb001917 	bl	8328 <__aeabi_dmul>
    1ec8:	e3a02000 	mov	r2, #0
    1ecc:	e3a03000 	mov	r3, #0
    1ed0:	e3443020 	movt	r3, #16416	; 0x4020
    1ed4:	eb00180e 	bl	7f14 <__aeabi_dsub>
    1ed8:	eb001aa1 	bl	8964 <__aeabi_d2f>
    1edc:	e5850044 	str	r0, [r5, #68]	; 0x44

    // 3. Calculate Accelearations (Approx)
    calculateSPHAccelerations(i);
    1ee0:	e1a00004 	mov	r0, r4
    1ee4:	ebfffd98 	bl	154c <calculateSPHAccelerations>

    // 4. Step Velocities and then positions.
    doVelocityStepCheck(i);
    1ee8:	e1a00004 	mov	r0, r4
    1eec:	ebfffbe5 	bl	e88 <doVelocityStepCheck>
    stepSPHVelocities(i);
    1ef0:	e1a00004 	mov	r0, r4
    1ef4:	ebfffcac 	bl	11ac <stepSPHVelocities>
    stepSPHPositions(i);
    1ef8:	e1a00004 	mov	r0, r4
    1efc:	ebfffb7e 	bl	cfc <stepSPHPositions>
    1f00:	e8bd8038 	pop	{r3, r4, r5, pc}

00001f04 <timeStepBucketwiseParticleUpdate>:

}

void timeStepBucketwiseParticleUpdate() {
    1f04:	e92d4ff0 	push	{r4, r5, r6, r7, r8, r9, r10, r11, lr}
    1f08:	e24dd02c 	sub	sp, sp, #44	; 0x2c
    1f0c:	e59f2338 	ldr	r2, [pc, #824]	; 224c <timeStepBucketwiseParticleUpdate+0x348>
    1f10:	e242300c 	sub	r3, r2, #12
    1f14:	e28220f4 	add	r2, r2, #244	; 0xf4
    
    // clean buckets
    for (int bucket = 0; bucket < NUM_BUCKETS; bucket++) {
        numElementsInBucket_even[bucket] = 0;
    1f18:	e3a01000 	mov	r1, #0
    1f1c:	e5a31004 	str	r1, [r3, #4]!
}

void timeStepBucketwiseParticleUpdate() {
    
    // clean buckets
    for (int bucket = 0; bucket < NUM_BUCKETS; bucket++) {
    1f20:	e1530002 	cmp	r3, r2
    1f24:	1afffffc 	bne	1f1c <timeStepBucketwiseParticleUpdate+0x18>
    1f28:	e3a01000 	mov	r1, #0
    1f2c:	e1a08001 	mov	r8, r1
    1f30:	e1a02001 	mov	r2, r1
    }

    // Populate all buckets with particle indicies appropriately
    for (int i = 0; i < NUM_PARTICLES; i++) {

        allEraseParticles[i].x = allParticles[i].x;
    1f34:	e59fb314 	ldr	r11, [pc, #788]	; 2250 <timeStepBucketwiseParticleUpdate+0x34c>
    1f38:	e3013a6c 	movw	r3, #6764	; 0x1a6c
    1f3c:	e3403010 	movt	r3, #16
    1f40:	e2439edf 	sub	r9, r3, #3568	; 0xdf0
    1f44:	e249900c 	sub	r9, r9, #12
        allEraseParticles[i].y = allParticles[i].y;

        int evenBucket = (allParticles[i].x/BUCKET_WIDTH);
    1f48:	e3067667 	movw	r7, #26215	; 0x6667
    1f4c:	e3467666 	movt	r7, #26214	; 0x6666
        // assert(evenBucket >= 0 && evenBucket < NUM_BUCKETS);
        buckets_even[evenBucket][numElementsInBucket_even[evenBucket]] = i;
    1f50:	e30f0848 	movw	r0, #63560	; 0xf848
    1f54:	e34f0fff 	movt	r0, #65535	; 0xffff
    1f58:	e3a0a0c8 	mov	r10, #200	; 0xc8
    1f5c:	e30f6948 	movw	r6, #63816	; 0xf948
    1f60:	e34f6fff 	movt	r6, #65535	; 0xffff
    }

    // Populate all buckets with particle indicies appropriately
    for (int i = 0; i < NUM_PARTICLES; i++) {

        allEraseParticles[i].x = allParticles[i].x;
    1f64:	e1a0500b 	mov	r5, r11
    1f68:	e7b5c008 	ldr	r12, [r5, r8]!
    1f6c:	e1a04009 	mov	r4, r9
    1f70:	e7a4c001 	str	r12, [r4, r1]!
        allEraseParticles[i].y = allParticles[i].y;
    1f74:	e5955004 	ldr	r5, [r5, #4]
    1f78:	e5845004 	str	r5, [r4, #4]

        int evenBucket = (allParticles[i].x/BUCKET_WIDTH);
    1f7c:	e0c54c97 	smull	r4, r5, r7, r12
    1f80:	e1a0cfcc 	asr	r12, r12, #31
    1f84:	e06c50c5 	rsb	r5, r12, r5, asr #1
        // assert(evenBucket >= 0 && evenBucket < NUM_BUCKETS);
        buckets_even[evenBucket][numElementsInBucket_even[evenBucket]] = i;
    1f88:	e083c105 	add	r12, r3, r5, lsl #2
    1f8c:	e79c4000 	ldr	r4, [r12, r0]
    1f90:	e025459a 	mla	r5, r10, r5, r4
    1f94:	e0835105 	add	r5, r3, r5, lsl #2
    1f98:	e7852006 	str	r2, [r5, r6]
        numElementsInBucket_even[evenBucket]++;
    1f9c:	e2844001 	add	r4, r4, #1
    1fa0:	e78c4000 	str	r4, [r12, r0]
    for (int bucket = 0; bucket < NUM_BUCKETS; bucket++) {
        numElementsInBucket_even[bucket] = 0;
    }

    // Populate all buckets with particle indicies appropriately
    for (int i = 0; i < NUM_PARTICLES; i++) {
    1fa4:	e2822001 	add	r2, r2, #1
    1fa8:	e2888d36 	add	r8, r8, #3456	; 0xd80
    1fac:	e2811008 	add	r1, r1, #8
    1fb0:	e35200c8 	cmp	r2, #200	; 0xc8
    1fb4:	1affffea 	bne	1f64 <timeStepBucketwiseParticleUpdate+0x60>
    1fb8:	e59f4294 	ldr	r4, [pc, #660]	; 2254 <timeStepBucketwiseParticleUpdate+0x350>
    1fbc:	e58d4020 	str	r4, [sp, #32]
    1fc0:	e3a04000 	mov	r4, #0
    1fc4:	e58d4014 	str	r4, [sp, #20]
        } else if(bucket == (NUM_BUCKETS - 1)) {
            neighbourBucketIndexes[0] = bucket-1;
            neighbourBucketIndexes[1] = bucket;
            neighbourBucketIndexes[2] = -1;
        } else {
            neighbourBucketIndexes[0] = bucket-1;
    1fc8:	e30d4a3c 	movw	r4, #55868	; 0xda3c
    1fcc:	e3404010 	movt	r4, #16
    1fd0:	e58d4008 	str	r4, [sp, #8]
    stepSPHVelocities(i);
    stepSPHPositions(i);

}

void timeStepBucketwiseParticleUpdate() {
    1fd4:	e3019a6c 	movw	r9, #6764	; 0x1a6c
    1fd8:	e3409010 	movt	r9, #16
    1fdc:	e2493e6b 	sub	r3, r9, #1712	; 0x6b0
    1fe0:	e2433008 	sub	r3, r3, #8
    1fe4:	e58d3010 	str	r3, [sp, #16]
            int i = buckets_even[bucket][pos_i];

            for(int nbIdx = 0; nbIdx < 3; nbIdx++){
                
                int buck = neighbourBucketIndexes[nbIdx];
                allParticles[i].bucketIndexes[nbIdx] = buck;
    1fe8:	e3094e4c 	movw	r4, #40524	; 0x9e4c
    1fec:	e3404000 	movt	r4, #0
    1ff0:	e58d401c 	str	r4, [sp, #28]
    stepSPHVelocities(i);
    stepSPHPositions(i);

}

void timeStepBucketwiseParticleUpdate() {
    1ff4:	e2844024 	add	r4, r4, #36	; 0x24
    1ff8:	e58d4024 	str	r4, [sp, #36]	; 0x24

    }

    for (int bucket = 0; bucket < NUM_BUCKETS; bucket++) {

        if(bucket == 0){
    1ffc:	e59d4014 	ldr	r4, [sp, #20]
    2000:	e3540000 	cmp	r4, #0
    2004:	1a00000c 	bne	203c <timeStepBucketwiseParticleUpdate+0x138>
            neighbourBucketIndexes[0] = bucket;
    2008:	e3a03000 	mov	r3, #0
    200c:	e59d4008 	ldr	r4, [sp, #8]
    2010:	e5843178 	str	r3, [r4, #376]	; 0x178
            neighbourBucketIndexes[1] = bucket+1;
    2014:	e3a03001 	mov	r3, #1
    2018:	e584317c 	str	r3, [r4, #380]	; 0x17c
            neighbourBucketIndexes[2] = -1;
    201c:	e3e03000 	mvn	r3, #0
    2020:	e5843180 	str	r3, [r4, #384]	; 0x180
            neighbourBucketIndexes[0] = bucket-1;
            neighbourBucketIndexes[1] = bucket;
            neighbourBucketIndexes[2] = bucket+1;
        }

        for (int pos_i = 0; pos_i < numElementsInBucket_even[bucket]; pos_i++) {
    2024:	e59d4020 	ldr	r4, [sp, #32]
    2028:	e4943004 	ldr	r3, [r4], #4
    202c:	e58d4020 	str	r4, [sp, #32]
    2030:	e3530000 	cmp	r3, #0
    2034:	ca000014 	bgt	208c <timeStepBucketwiseParticleUpdate+0x188>
    2038:	ea000077 	b	221c <timeStepBucketwiseParticleUpdate+0x318>

        if(bucket == 0){
            neighbourBucketIndexes[0] = bucket;
            neighbourBucketIndexes[1] = bucket+1;
            neighbourBucketIndexes[2] = -1;
        } else if(bucket == (NUM_BUCKETS - 1)) {
    203c:	e59d4014 	ldr	r4, [sp, #20]
    2040:	e354003f 	cmp	r4, #63	; 0x3f
    2044:	1a000007 	bne	2068 <timeStepBucketwiseParticleUpdate+0x164>
            neighbourBucketIndexes[0] = bucket-1;
    2048:	e3a0303e 	mov	r3, #62	; 0x3e
    204c:	e59d4008 	ldr	r4, [sp, #8]
    2050:	e5843178 	str	r3, [r4, #376]	; 0x178
            neighbourBucketIndexes[1] = bucket;
    2054:	e3a0303f 	mov	r3, #63	; 0x3f
    2058:	e584317c 	str	r3, [r4, #380]	; 0x17c
            neighbourBucketIndexes[2] = -1;
    205c:	e3e03000 	mvn	r3, #0
    2060:	e5843180 	str	r3, [r4, #384]	; 0x180
    2064:	eaffffee 	b	2024 <timeStepBucketwiseParticleUpdate+0x120>
    stepSPHVelocities(i);
    stepSPHPositions(i);

}

void timeStepBucketwiseParticleUpdate() {
    2068:	e59d4014 	ldr	r4, [sp, #20]
    206c:	e2443001 	sub	r3, r4, #1
        } else if(bucket == (NUM_BUCKETS - 1)) {
            neighbourBucketIndexes[0] = bucket-1;
            neighbourBucketIndexes[1] = bucket;
            neighbourBucketIndexes[2] = -1;
        } else {
            neighbourBucketIndexes[0] = bucket-1;
    2070:	e59d4008 	ldr	r4, [sp, #8]
    2074:	e5843178 	str	r3, [r4, #376]	; 0x178
            neighbourBucketIndexes[1] = bucket;
    2078:	e59d0014 	ldr	r0, [sp, #20]
    207c:	e584017c 	str	r0, [r4, #380]	; 0x17c
    stepSPHVelocities(i);
    stepSPHPositions(i);

}

void timeStepBucketwiseParticleUpdate() {
    2080:	e2803001 	add	r3, r0, #1
            neighbourBucketIndexes[1] = bucket;
            neighbourBucketIndexes[2] = -1;
        } else {
            neighbourBucketIndexes[0] = bucket-1;
            neighbourBucketIndexes[1] = bucket;
            neighbourBucketIndexes[2] = bucket+1;
    2084:	e5843180 	str	r3, [r4, #384]	; 0x180
    2088:	eaffffe5 	b	2024 <timeStepBucketwiseParticleUpdate+0x120>
    stepSPHVelocities(i);
    stepSPHPositions(i);

}

void timeStepBucketwiseParticleUpdate() {
    208c:	e3a03e32 	mov	r3, #800	; 0x320
    2090:	e59d4014 	ldr	r4, [sp, #20]
    2094:	e59d0010 	ldr	r0, [sp, #16]
    2098:	e0230493 	mla	r3, r3, r4, r0
    209c:	e2433004 	sub	r3, r3, #4
    20a0:	e58d3018 	str	r3, [sp, #24]
    20a4:	e3a04000 	mov	r4, #0
    20a8:	e58d400c 	str	r4, [sp, #12]
            neighbourBucketIndexes[1] = bucket;
            neighbourBucketIndexes[2] = bucket+1;
        }

        for (int pos_i = 0; pos_i < numElementsInBucket_even[bucket]; pos_i++) {
            int i = buckets_even[bucket][pos_i];
    20ac:	e59d4018 	ldr	r4, [sp, #24]
    20b0:	e5b48004 	ldr	r8, [r4, #4]!
    20b4:	e58d4018 	str	r4, [sp, #24]

            for(int nbIdx = 0; nbIdx < 3; nbIdx++){
                
                int buck = neighbourBucketIndexes[nbIdx];
    20b8:	e59d4008 	ldr	r4, [sp, #8]
    20bc:	e5943178 	ldr	r3, [r4, #376]	; 0x178
                allParticles[i].bucketIndexes[nbIdx] = buck;
    20c0:	e3a02d36 	mov	r2, #3456	; 0xd80
    20c4:	e59d401c 	ldr	r4, [sp, #28]
    20c8:	e0224892 	mla	r2, r2, r8, r4
    20cc:	e5823d98 	str	r3, [r2, #3480]	; 0xd98

                if (buck<0 || buck>=NUM_BUCKETS) break;
    20d0:	e353003f 	cmp	r3, #63	; 0x3f
    20d4:	8a000040 	bhi	21dc <timeStepBucketwiseParticleUpdate+0x2d8>
    20d8:	e59d4008 	ldr	r4, [sp, #8]
    20dc:	e2844f5e 	add	r4, r4, #376	; 0x178
    20e0:	e58d4000 	str	r4, [sp]
    stepSPHVelocities(i);
    stepSPHPositions(i);

}

void timeStepBucketwiseParticleUpdate() {
    20e4:	e3a02d36 	mov	r2, #3456	; 0xd80
    20e8:	e59d4024 	ldr	r4, [sp, #36]	; 0x24
    20ec:	e0224892 	mla	r2, r2, r8, r4
    20f0:	e2822ed7 	add	r2, r2, #3440	; 0xd70
    20f4:	e2822004 	add	r2, r2, #4
    20f8:	e58d2004 	str	r2, [sp, #4]
                for (int pos_j = 0; pos_j < numElementsInBucket_even[buck]; pos_j++) {

                    int j = buckets_even[buck][pos_j];
                    // if(j<(i+1)) continue;

                    if (lastSeen[i][j] == timeStep || lastSeen[j][i] == timeStep) continue;
    20fc:	e3015bac 	movw	r5, #7084	; 0x1bac
    2100:	e340500b 	movt	r5, #11
    2104:	e3a000c8 	mov	r0, #200	; 0xc8
    2108:	e00a0890 	mul	r10, r0, r8
    210c:	ea000007 	b	2130 <timeStepBucketwiseParticleUpdate+0x22c>
        for (int pos_i = 0; pos_i < numElementsInBucket_even[bucket]; pos_i++) {
            int i = buckets_even[bucket][pos_i];

            for(int nbIdx = 0; nbIdx < 3; nbIdx++){
                
                int buck = neighbourBucketIndexes[nbIdx];
    2110:	e59d4000 	ldr	r4, [sp]
    2114:	e5b43004 	ldr	r3, [r4, #4]!
    2118:	e58d4000 	str	r4, [sp]
                allParticles[i].bucketIndexes[nbIdx] = buck;
    211c:	e59d4004 	ldr	r4, [sp, #4]
    2120:	e5a43004 	str	r3, [r4, #4]!
    2124:	e58d4004 	str	r4, [sp, #4]

                if (buck<0 || buck>=NUM_BUCKETS) break;
    2128:	e353003f 	cmp	r3, #63	; 0x3f
    212c:	8a00002a 	bhi	21dc <timeStepBucketwiseParticleUpdate+0x2d8>

                for (int pos_j = 0; pos_j < numElementsInBucket_even[buck]; pos_j++) {
    2130:	e0892103 	add	r2, r9, r3, lsl #2
    2134:	e51227b8 	ldr	r2, [r2, #-1976]	; 0xfffff848
    2138:	e3520000 	cmp	r2, #0
    213c:	da000022 	ble	21cc <timeStepBucketwiseParticleUpdate+0x2c8>
    stepSPHVelocities(i);
    stepSPHPositions(i);

}

void timeStepBucketwiseParticleUpdate() {
    2140:	e3a07e32 	mov	r7, #800	; 0x320
    2144:	e59d4010 	ldr	r4, [sp, #16]
    2148:	e0274397 	mla	r7, r7, r3, r4
    214c:	e2477004 	sub	r7, r7, #4
    2150:	e3a04000 	mov	r4, #0
                for (int pos_j = 0; pos_j < numElementsInBucket_even[buck]; pos_j++) {

                    int j = buckets_even[buck][pos_j];
                    // if(j<(i+1)) continue;

                    if (lastSeen[i][j] == timeStep || lastSeen[j][i] == timeStep) continue;
    2154:	e3006ec4 	movw	r6, #3780	; 0xec4
                int buck = neighbourBucketIndexes[nbIdx];
                allParticles[i].bucketIndexes[nbIdx] = buck;

                if (buck<0 || buck>=NUM_BUCKETS) break;

                for (int pos_j = 0; pos_j < numElementsInBucket_even[buck]; pos_j++) {
    2158:	e0893103 	add	r3, r9, r3, lsl #2
    215c:	e243be7b 	sub	r11, r3, #1968	; 0x7b0
    2160:	e24bb008 	sub	r11, r11, #8

                    int j = buckets_even[buck][pos_j];
    2164:	e5b71004 	ldr	r1, [r7, #4]!
                    // if(j<(i+1)) continue;

                    if (lastSeen[i][j] == timeStep || lastSeen[j][i] == timeStep) continue;
    2168:	e51937bc 	ldr	r3, [r9, #-1980]	; 0xfffff844
    216c:	e08a2001 	add	r2, r10, r1
    2170:	e0852102 	add	r2, r5, r2, lsl #2
    2174:	e7922006 	ldr	r2, [r2, r6]
    2178:	e1520003 	cmp	r2, r3
    217c:	0a00000e 	beq	21bc <timeStepBucketwiseParticleUpdate+0x2b8>
    2180:	e3a000c8 	mov	r0, #200	; 0xc8
    2184:	e0228190 	mla	r2, r0, r1, r8
    2188:	e0852102 	add	r2, r5, r2, lsl #2
    218c:	e7922006 	ldr	r2, [r2, r6]
    2190:	e1530002 	cmp	r3, r2
    2194:	0a000008 	beq	21bc <timeStepBucketwiseParticleUpdate+0x2b8>
                    lastSeen[i][j] = timeStep; 
    2198:	e08a2001 	add	r2, r10, r1
    219c:	e0852102 	add	r2, r5, r2, lsl #2
    21a0:	e7823006 	str	r3, [r2, r6]
                    lastSeen[j][i] = timeStep; 
    21a4:	e0238190 	mla	r3, r0, r1, r8
    21a8:	e0853103 	add	r3, r5, r3, lsl #2
    21ac:	e51927bc 	ldr	r2, [r9, #-1980]	; 0xfffff844
    21b0:	e7832006 	str	r2, [r3, r6]

                    // Call helper function to actually process i/j collision
                    timeStepSPHApproximation(i,j);
    21b4:	e1a00008 	mov	r0, r8
    21b8:	ebfffe60 	bl	1b40 <timeStepSPHApproximation>
                int buck = neighbourBucketIndexes[nbIdx];
                allParticles[i].bucketIndexes[nbIdx] = buck;

                if (buck<0 || buck>=NUM_BUCKETS) break;

                for (int pos_j = 0; pos_j < numElementsInBucket_even[buck]; pos_j++) {
    21bc:	e2844001 	add	r4, r4, #1
    21c0:	e59b3000 	ldr	r3, [r11]
    21c4:	e1530004 	cmp	r3, r4
    21c8:	caffffe5 	bgt	2164 <timeStepBucketwiseParticleUpdate+0x260>
        }

        for (int pos_i = 0; pos_i < numElementsInBucket_even[bucket]; pos_i++) {
            int i = buckets_even[bucket][pos_i];

            for(int nbIdx = 0; nbIdx < 3; nbIdx++){
    21cc:	e59d4000 	ldr	r4, [sp]
    21d0:	e59f0080 	ldr	r0, [pc, #128]	; 2258 <timeStepBucketwiseParticleUpdate+0x354>
    21d4:	e1540000 	cmp	r4, r0
    21d8:	1affffcc 	bne	2110 <timeStepBucketwiseParticleUpdate+0x20c>

                }

            }
            
            timeStep++;
    21dc:	e51937bc 	ldr	r3, [r9, #-1980]	; 0xfffff844
    21e0:	e2833001 	add	r3, r3, #1
    21e4:	e50937bc 	str	r3, [r9, #-1980]	; 0xfffff844
            generalParticleUpdate(i);
    21e8:	e1a00008 	mov	r0, r8
    21ec:	ebffff23 	bl	1e80 <generalParticleUpdate>
            timeStep--;
    21f0:	e51937bc 	ldr	r3, [r9, #-1980]	; 0xfffff844
    21f4:	e2433001 	sub	r3, r3, #1
    21f8:	e50937bc 	str	r3, [r9, #-1980]	; 0xfffff844
            neighbourBucketIndexes[0] = bucket-1;
            neighbourBucketIndexes[1] = bucket;
            neighbourBucketIndexes[2] = bucket+1;
        }

        for (int pos_i = 0; pos_i < numElementsInBucket_even[bucket]; pos_i++) {
    21fc:	e59d400c 	ldr	r4, [sp, #12]
    2200:	e2844001 	add	r4, r4, #1
    2204:	e58d400c 	str	r4, [sp, #12]
    2208:	e59d4020 	ldr	r4, [sp, #32]
    220c:	e5143004 	ldr	r3, [r4, #-4]
    2210:	e59d400c 	ldr	r4, [sp, #12]
    2214:	e1530004 	cmp	r3, r4
    2218:	caffffa3 	bgt	20ac <timeStepBucketwiseParticleUpdate+0x1a8>
        buckets_even[evenBucket][numElementsInBucket_even[evenBucket]] = i;
        numElementsInBucket_even[evenBucket]++;

    }

    for (int bucket = 0; bucket < NUM_BUCKETS; bucket++) {
    221c:	e59d4014 	ldr	r4, [sp, #20]
    2220:	e2844001 	add	r4, r4, #1
    2224:	e58d4014 	str	r4, [sp, #20]
    2228:	e3540040 	cmp	r4, #64	; 0x40
    222c:	1affff72 	bne	1ffc <timeStepBucketwiseParticleUpdate+0xf8>
            timeStep--;
        }

        
    }
    timeStep++;
    2230:	e3013a6c 	movw	r3, #6764	; 0x1a6c
    2234:	e3403010 	movt	r3, #16
    2238:	e51327bc 	ldr	r2, [r3, #-1980]	; 0xfffff844
    223c:	e2822001 	add	r2, r2, #1
    2240:	e50327bc 	str	r2, [r3, #-1980]	; 0xfffff844
}
    2244:	e28dd02c 	add	sp, sp, #44	; 0x2c
    2248:	e8bd8ff0 	pop	{r4, r5, r6, r7, r8, r9, r10, r11, pc}
    224c:	001012bc 	.word	0x001012bc
    2250:	00009e70 	.word	0x00009e70
    2254:	001012b4 	.word	0x001012b4
    2258:	0010dbbc 	.word	0x0010dbbc

0000225c <dotProd2D>:
DrawBody eraseRBs [NUM_BODIES];
RigidBody allBodies [NUM_BODIES];

int currentMouseInteractionObj;

float dotProd2D(Vector2D * a, Vector2D * b){
    225c:	e92d4070 	push	{r4, r5, r6, lr}
    2260:	e1a05000 	mov	r5, r0
    2264:	e1a04001 	mov	r4, r1
    return a->x * b->x + a->y * b->y;
    2268:	e5900000 	ldr	r0, [r0]
    226c:	e5911000 	ldr	r1, [r1]
    2270:	eb001a8e 	bl	8cb0 <__aeabi_fmul>
    2274:	e1a06000 	mov	r6, r0
    2278:	e5950004 	ldr	r0, [r5, #4]
    227c:	e5941004 	ldr	r1, [r4, #4]
    2280:	eb001a8a 	bl	8cb0 <__aeabi_fmul>
    2284:	e1a01000 	mov	r1, r0
    2288:	e1a00006 	mov	r0, r6
    228c:	eb0019df 	bl	8a10 <__addsf3>
}
    2290:	e8bd8070 	pop	{r4, r5, r6, pc}

00002294 <magnitudeCrossProd2D>:
float magnitudeCrossProd2D(Vector2D * a, Vector2D * b){
    2294:	e92d4070 	push	{r4, r5, r6, lr}
    2298:	e1a05000 	mov	r5, r0
    229c:	e1a04001 	mov	r4, r1
    return a->x * b->y - a->y * b->x;
    22a0:	e5900000 	ldr	r0, [r0]
    22a4:	e5911004 	ldr	r1, [r1, #4]
    22a8:	eb001a80 	bl	8cb0 <__aeabi_fmul>
    22ac:	e1a06000 	mov	r6, r0
    22b0:	e5950004 	ldr	r0, [r5, #4]
    22b4:	e5941000 	ldr	r1, [r4]
    22b8:	eb001a7c 	bl	8cb0 <__aeabi_fmul>
    22bc:	e1a01000 	mov	r1, r0
    22c0:	e1a00006 	mov	r0, r6
    22c4:	eb0019d0 	bl	8a0c <__aeabi_fsub>
}
    22c8:	e8bd8070 	pop	{r4, r5, r6, pc}

000022cc <floatMin>:
float floatMin(float a, float b){
    22cc:	e92d4038 	push	{r3, r4, r5, lr}
    22d0:	e1a04000 	mov	r4, r0
    22d4:	e1a05001 	mov	r5, r1
    return a < b? a : b;
    22d8:	eb001b5f 	bl	905c <__aeabi_fcmplt>
    22dc:	e3500000 	cmp	r0, #0
    22e0:	01a04005 	moveq	r4, r5
}
    22e4:	e1a00004 	mov	r0, r4
    22e8:	e8bd8038 	pop	{r3, r4, r5, pc}

000022ec <checkSATInterBodyCollision>:
// Check if rigid body I has coillided with any rigid body j
// Credit to the SAT. (Seperating Axis Theorem).
void checkSATInterBodyCollision(int i){
    22ec:	e92d4ff0 	push	{r4, r5, r6, r7, r8, r9, r10, r11, lr}
    22f0:	e24dd06c 	sub	sp, sp, #108	; 0x6c
    22f4:	e58d0020 	str	r0, [sp, #32]
    
    if (i==currentMouseInteractionObj) return;
    22f8:	e30d3a3c 	movw	r3, #55868	; 0xda3c
    22fc:	e3403010 	movt	r3, #16
    2300:	e5933184 	ldr	r3, [r3, #388]	; 0x184
    2304:	e1500003 	cmp	r0, r3
    2308:	0a000208 	beq	2b30 <checkSATInterBodyCollision+0x844>
float floatMin(float a, float b){
    return a < b? a : b;
}
// Check if rigid body I has coillided with any rigid body j
// Credit to the SAT. (Seperating Axis Theorem).
void checkSATInterBodyCollision(int i){
    230c:	e59f3824 	ldr	r3, [pc, #2084]	; 2b38 <checkSATInterBodyCollision+0x84c>
    2310:	e0833180 	add	r3, r3, r0, lsl #3
    2314:	e58d3040 	str	r3, [sp, #64]	; 0x40
    2318:	e3a04000 	mov	r4, #0
    231c:	e58d4008 	str	r4, [sp, #8]

    for(int j = 0; j < NUM_BODIES; j++){

        forceIndex += 1;
        if (j==i) continue;
        if (j==currentMouseInteractionObj) continue;
    2320:	e30d4a3c 	movw	r4, #55868	; 0xda3c
    2324:	e3404010 	movt	r4, #16
    2328:	e58d4004 	str	r4, [sp, #4]
float floatMin(float a, float b){
    return a < b? a : b;
}
// Check if rigid body I has coillided with any rigid body j
// Credit to the SAT. (Seperating Axis Theorem).
void checkSATInterBodyCollision(int i){
    232c:	e2844f72 	add	r4, r4, #456	; 0x1c8
    2330:	e58d4048 	str	r4, [sp, #72]	; 0x48
    2334:	e3a0cf65 	mov	r12, #404	; 0x194
    2338:	e023409c 	mla	r3, r12, r0, r4
    233c:	e2433004 	sub	r3, r3, #4
    2340:	e58d3034 	str	r3, [sp, #52]	; 0x34
    2344:	e59d4008 	ldr	r4, [sp, #8]
    2348:	e58d402c 	str	r4, [sp, #44]	; 0x2c
    234c:	e2844004 	add	r4, r4, #4
    2350:	e58d4038 	str	r4, [sp, #56]	; 0x38
    int forceIndex = VERTICIES_PER_BODY - 1;

    for(int j = 0; j < NUM_BODIES; j++){

        forceIndex += 1;
        if (j==i) continue;
    2354:	e59d4008 	ldr	r4, [sp, #8]
    2358:	e59dc020 	ldr	r12, [sp, #32]
    235c:	e154000c 	cmp	r4, r12
    2360:	0a0001bc 	beq	2a58 <checkSATInterBodyCollision+0x76c>
        if (j==currentMouseInteractionObj) continue;
    2364:	e59d4004 	ldr	r4, [sp, #4]
    2368:	e5943184 	ldr	r3, [r4, #388]	; 0x184
    236c:	e59d4008 	ldr	r4, [sp, #8]
    2370:	e1540003 	cmp	r4, r3
    2374:	0a0001b7 	beq	2a58 <checkSATInterBodyCollision+0x76c>
        if (bookMarkedCollisions[i][j]) continue;
    2378:	e59dc040 	ldr	r12, [sp, #64]	; 0x40
    237c:	e7dc3004 	ldrb	r3, [r12, r4]
    2380:	e3530000 	cmp	r3, #0
    2384:	1a0001b3 	bne	2a58 <checkSATInterBodyCollision+0x76c>
    2388:	e3a0b000 	mov	r11, #0
    238c:	e58db04c 	str	r11, [sp, #76]	; 0x4c
    2390:	e58db03c 	str	r11, [sp, #60]	; 0x3c
    2394:	e58db044 	str	r11, [sp, #68]	; 0x44
    2398:	e3074699 	movw	r4, #30361	; 0x7699
    239c:	e3474e96 	movt	r4, #32406	; 0x7e96
    23a0:	e58d4030 	str	r4, [sp, #48]	; 0x30
        bool hasCollided = true;

        // Loop over edge normals of both shapes.
        for(int vertIdx = 0; vertIdx < (VERTICIES_PER_BODY<<1); vertIdx++) {
            
            int startIdxi = (vertIdx % 4)? (vertIdx % 4)-1 : VERTICIES_PER_BODY - 1;
    23a4:	e3a04003 	mov	r4, #3
            int endIdxi = (vertIdx % 4);
            
            // dx and dy here define our current edge on either i or j (and the vector parallel to it).
            if(vertIdx < VERTICIES_PER_BODY){
                dx = allBodies[i].xs[endIdxi] - allBodies[i].xs[startIdxi];
    23a8:	e3a0c065 	mov	r12, #101	; 0x65
    23ac:	e59d0020 	ldr	r0, [sp, #32]
    23b0:	e00c009c 	mul	r12, r12, r0
    23b4:	e58dc024 	str	r12, [sp, #36]	; 0x24
float floatMin(float a, float b){
    return a < b? a : b;
}
// Check if rigid body I has coillided with any rigid body j
// Credit to the SAT. (Seperating Axis Theorem).
void checkSATInterBodyCollision(int i){
    23b8:	e59d1008 	ldr	r1, [sp, #8]
    23bc:	e3a02f65 	mov	r2, #404	; 0x194
    23c0:	e59dc048 	ldr	r12, [sp, #72]	; 0x48
    23c4:	e023c192 	mla	r3, r2, r1, r12
    23c8:	e2433004 	sub	r3, r3, #4
    23cc:	e58d3028 	str	r3, [sp, #40]	; 0x28
    23d0:	ea000007 	b	23f4 <checkSATInterBodyCollision+0x108>
        bool hasCollided = true;

        // Loop over edge normals of both shapes.
        for(int vertIdx = 0; vertIdx < (VERTICIES_PER_BODY<<1); vertIdx++) {
            
            int startIdxi = (vertIdx % 4)? (vertIdx % 4)-1 : VERTICIES_PER_BODY - 1;
    23d4:	e31b0003 	tst	r11, #3
    23d8:	11a03fcb 	asrne	r3, r11, #31
    23dc:	11a03f23 	lsrne	r3, r3, #30
    23e0:	108b4003 	addne	r4, r11, r3
    23e4:	12044003 	andne	r4, r4, #3
    23e8:	10634004 	rsbne	r4, r3, r4
    23ec:	12444001 	subne	r4, r4, #1
    23f0:	03a04003 	moveq	r4, #3
            int endIdxi = (vertIdx % 4);
    23f4:	e1a03fcb 	asr	r3, r11, #31
    23f8:	e1a03f23 	lsr	r3, r3, #30
    23fc:	e08b2003 	add	r2, r11, r3
    2400:	e2022003 	and	r2, r2, #3
    2404:	e0633002 	rsb	r3, r3, r2
            
            // dx and dy here define our current edge on either i or j (and the vector parallel to it).
            if(vertIdx < VERTICIES_PER_BODY){
    2408:	e35b0003 	cmp	r11, #3
    240c:	ca000013 	bgt	2460 <checkSATInterBodyCollision+0x174>
                dx = allBodies[i].xs[endIdxi] - allBodies[i].xs[startIdxi];
    2410:	e59d0024 	ldr	r0, [sp, #36]	; 0x24
    2414:	e0805003 	add	r5, r0, r3
    2418:	e59d1004 	ldr	r1, [sp, #4]
    241c:	e0812105 	add	r2, r1, r5, lsl #2
    2420:	e0804004 	add	r4, r0, r4
    2424:	e0813104 	add	r3, r1, r4, lsl #2
    2428:	e59201c8 	ldr	r0, [r2, #456]	; 0x1c8
    242c:	e59331c8 	ldr	r3, [r3, #456]	; 0x1c8
    2430:	e0630000 	rsb	r0, r3, r0
    2434:	eb0019e6 	bl	8bd4 <__aeabi_i2f>
    2438:	e58d0014 	str	r0, [sp, #20]
                dy = allBodies[i].ys[endIdxi] - allBodies[i].ys[startIdxi];
    243c:	e59d2004 	ldr	r2, [sp, #4]
    2440:	e0825105 	add	r5, r2, r5, lsl #2
    2444:	e0824104 	add	r4, r2, r4, lsl #2
    2448:	e59501d8 	ldr	r0, [r5, #472]	; 0x1d8
    244c:	e59431d8 	ldr	r3, [r4, #472]	; 0x1d8
    2450:	e0630000 	rsb	r0, r3, r0
    2454:	eb0019de 	bl	8bd4 <__aeabi_i2f>
    2458:	e58d0010 	str	r0, [sp, #16]
    245c:	ea000014 	b	24b4 <checkSATInterBodyCollision+0x1c8>
            } else {
                dx = allBodies[j].xs[endIdxi] - allBodies[j].xs[startIdxi];
    2460:	e3a0c065 	mov	r12, #101	; 0x65
    2464:	e59d0008 	ldr	r0, [sp, #8]
    2468:	e002009c 	mul	r2, r12, r0
    246c:	e0825003 	add	r5, r2, r3
    2470:	e59d3004 	ldr	r3, [sp, #4]
    2474:	e0831105 	add	r1, r3, r5, lsl #2
    2478:	e0824004 	add	r4, r2, r4
    247c:	e0833104 	add	r3, r3, r4, lsl #2
    2480:	e59101c8 	ldr	r0, [r1, #456]	; 0x1c8
    2484:	e59331c8 	ldr	r3, [r3, #456]	; 0x1c8
    2488:	e0630000 	rsb	r0, r3, r0
    248c:	eb0019d0 	bl	8bd4 <__aeabi_i2f>
    2490:	e58d0014 	str	r0, [sp, #20]
                dy = allBodies[j].ys[endIdxi] - allBodies[j].ys[startIdxi];
    2494:	e59dc004 	ldr	r12, [sp, #4]
    2498:	e08c5105 	add	r5, r12, r5, lsl #2
    249c:	e08c4104 	add	r4, r12, r4, lsl #2
    24a0:	e59501d8 	ldr	r0, [r5, #472]	; 0x1d8
    24a4:	e59431d8 	ldr	r3, [r4, #472]	; 0x1d8
    24a8:	e0630000 	rsb	r0, r3, r0
    24ac:	eb0019c8 	bl	8bd4 <__aeabi_i2f>
    24b0:	e58d0010 	str	r0, [sp, #16]
            }

            Vector2D normalVec, cVec;
            float testDot;
            normalVec.x = -dy;
    24b4:	e59d0010 	ldr	r0, [sp, #16]
    24b8:	e2803102 	add	r3, r0, #-2147483648	; 0x80000000
    24bc:	e58d3058 	str	r3, [sp, #88]	; 0x58
            normalVec.y = dx;
    24c0:	e59d4014 	ldr	r4, [sp, #20]
    24c4:	e58d405c 	str	r4, [sp, #92]	; 0x5c
float floatMin(float a, float b){
    return a < b? a : b;
}
// Check if rigid body I has coillided with any rigid body j
// Credit to the SAT. (Seperating Axis Theorem).
void checkSATInterBodyCollision(int i){
    24c8:	e59d5034 	ldr	r5, [sp, #52]	; 0x34
            miniDot = 1.0e38;
            minjDot = 1.0e38;
            maxiDot = -1.0e38;
            maxjDot = -1.0e38;

            for(int vertIdxi = 0; vertIdxi < VERTICIES_PER_BODY; vertIdxi++) {
    24cc:	e3a04000 	mov	r4, #0
            Vector2D normalVec, cVec;
            float testDot;
            normalVec.x = -dy;
            normalVec.y = dx;

            miniDot = 1.0e38;
    24d0:	e3077699 	movw	r7, #30361	; 0x7699
    24d4:	e3477e96 	movt	r7, #32406	; 0x7e96
            minjDot = 1.0e38;
            maxiDot = -1.0e38;
    24d8:	e3079699 	movw	r9, #30361	; 0x7699
    24dc:	e34f9e96 	movt	r9, #65174	; 0xfe96
            maxjDot = -1.0e38;

            for(int vertIdxi = 0; vertIdxi < VERTICIES_PER_BODY; vertIdxi++) {
                cVec.x = allBodies[i].xs[vertIdxi];
                cVec.y = allBodies[i].ys[vertIdxi];
                testDot = dotProd2D(&normalVec, &cVec);
    24e0:	e59d8018 	ldr	r8, [sp, #24]
    24e4:	e59da00c 	ldr	r10, [sp, #12]
            minjDot = 1.0e38;
            maxiDot = -1.0e38;
            maxjDot = -1.0e38;

            for(int vertIdxi = 0; vertIdxi < VERTICIES_PER_BODY; vertIdxi++) {
                cVec.x = allBodies[i].xs[vertIdxi];
    24e8:	e5b50004 	ldr	r0, [r5, #4]!
    24ec:	eb0019b8 	bl	8bd4 <__aeabi_i2f>
    24f0:	e58d0060 	str	r0, [sp, #96]	; 0x60
                cVec.y = allBodies[i].ys[vertIdxi];
    24f4:	e5950010 	ldr	r0, [r5, #16]
    24f8:	eb0019b5 	bl	8bd4 <__aeabi_i2f>
    24fc:	e58d0064 	str	r0, [sp, #100]	; 0x64
                testDot = dotProd2D(&normalVec, &cVec);
    2500:	e28d0058 	add	r0, sp, #88	; 0x58
    2504:	e28d1060 	add	r1, sp, #96	; 0x60
    2508:	ebffff53 	bl	225c <dotProd2D>
    250c:	e1a06000 	mov	r6, r0
                if(testDot < miniDot){miniDot = testDot; testiIdxMin = vertIdxi;}
    2510:	e1a01007 	mov	r1, r7
    2514:	eb001ad0 	bl	905c <__aeabi_fcmplt>
    2518:	e3500000 	cmp	r0, #0
    251c:	11a08004 	movne	r8, r4
    2520:	11a07006 	movne	r7, r6
                if(testDot > maxiDot){maxiDot = testDot; testiIdxMax = vertIdxi;}
    2524:	e1a00006 	mov	r0, r6
    2528:	e1a01009 	mov	r1, r9
    252c:	eb001adc 	bl	90a4 <__aeabi_fcmpgt>
    2530:	e3500000 	cmp	r0, #0
    2534:	11a0a004 	movne	r10, r4
    2538:	11a09006 	movne	r9, r6
            miniDot = 1.0e38;
            minjDot = 1.0e38;
            maxiDot = -1.0e38;
            maxjDot = -1.0e38;

            for(int vertIdxi = 0; vertIdxi < VERTICIES_PER_BODY; vertIdxi++) {
    253c:	e2844001 	add	r4, r4, #1
    2540:	e3540004 	cmp	r4, #4
    2544:	1affffe7 	bne	24e8 <checkSATInterBodyCollision+0x1fc>
    2548:	e58d8018 	str	r8, [sp, #24]
    254c:	e58da00c 	str	r10, [sp, #12]
float floatMin(float a, float b){
    return a < b? a : b;
}
// Check if rigid body I has coillided with any rigid body j
// Credit to the SAT. (Seperating Axis Theorem).
void checkSATInterBodyCollision(int i){
    2550:	e59d5028 	ldr	r5, [sp, #40]	; 0x28
    2554:	e3a04000 	mov	r4, #0
    2558:	e307a699 	movw	r10, #30361	; 0x7699
    255c:	e347ae96 	movt	r10, #32406	; 0x7e96
    2560:	e3078699 	movw	r8, #30361	; 0x7699
    2564:	e34f8e96 	movt	r8, #65174	; 0xfe96
                testDot = dotProd2D(&normalVec, &cVec);
                if(testDot < miniDot){miniDot = testDot; testiIdxMin = vertIdxi;}
                if(testDot > maxiDot){maxiDot = testDot; testiIdxMax = vertIdxi;}
            }
            for(int vertIdxj = 0; vertIdxj < VERTICIES_PER_BODY; vertIdxj++) {
                cVec.x = allBodies[j].xs[vertIdxj];
    2568:	e5b50004 	ldr	r0, [r5, #4]!
    256c:	eb001998 	bl	8bd4 <__aeabi_i2f>
    2570:	e58d0060 	str	r0, [sp, #96]	; 0x60
                cVec.y = allBodies[j].ys[vertIdxj];
    2574:	e5950010 	ldr	r0, [r5, #16]
    2578:	eb001995 	bl	8bd4 <__aeabi_i2f>
    257c:	e58d0064 	str	r0, [sp, #100]	; 0x64
                testDot = dotProd2D(&normalVec, &cVec);
    2580:	e28d0058 	add	r0, sp, #88	; 0x58
    2584:	e28d1060 	add	r1, sp, #96	; 0x60
    2588:	ebffff33 	bl	225c <dotProd2D>
    258c:	e1a06000 	mov	r6, r0
                if(testDot < minjDot){minjDot = testDot; testjIdxMin = vertIdxj;}
    2590:	e1a0100a 	mov	r1, r10
    2594:	eb001ab0 	bl	905c <__aeabi_fcmplt>
    2598:	e3500000 	cmp	r0, #0
    259c:	158d401c 	strne	r4, [sp, #28]
    25a0:	11a0a006 	movne	r10, r6
                if(testDot > maxjDot){maxjDot = testDot; testiIdxMax = vertIdxj;}
    25a4:	e1a00006 	mov	r0, r6
    25a8:	e1a01008 	mov	r1, r8
    25ac:	eb001abc 	bl	90a4 <__aeabi_fcmpgt>
    25b0:	e3500000 	cmp	r0, #0
    25b4:	158d400c 	strne	r4, [sp, #12]
    25b8:	11a08006 	movne	r8, r6
                cVec.y = allBodies[i].ys[vertIdxi];
                testDot = dotProd2D(&normalVec, &cVec);
                if(testDot < miniDot){miniDot = testDot; testiIdxMin = vertIdxi;}
                if(testDot > maxiDot){maxiDot = testDot; testiIdxMax = vertIdxi;}
            }
            for(int vertIdxj = 0; vertIdxj < VERTICIES_PER_BODY; vertIdxj++) {
    25bc:	e2844001 	add	r4, r4, #1
    25c0:	e3540004 	cmp	r4, #4
    25c4:	1affffe7 	bne	2568 <checkSATInterBodyCollision+0x27c>
                if(testDot < minjDot){minjDot = testDot; testjIdxMin = vertIdxj;}
                if(testDot > maxjDot){maxjDot = testDot; testiIdxMax = vertIdxj;}
            }

            // Test to see if we have found a seperating axis
            if(miniDot>=maxjDot || maxiDot<=minjDot) {hasCollided = false; break;}
    25c8:	e1a00007 	mov	r0, r7
    25cc:	e1a01008 	mov	r1, r8
    25d0:	eb001aad 	bl	908c <__aeabi_fcmpge>
    25d4:	e3500000 	cmp	r0, #0
    25d8:	1a000004 	bne	25f0 <checkSATInterBodyCollision+0x304>
    25dc:	e1a0000a 	mov	r0, r10
    25e0:	e1a01009 	mov	r1, r9
    25e4:	eb001aa8 	bl	908c <__aeabi_fcmpge>
    25e8:	e3500000 	cmp	r0, #0
    25ec:	0a000017 	beq	2650 <checkSATInterBodyCollision+0x364>
            allBodies[minSepVertBodyIdx].collidedLastStep = true;
            allBodies[minSepEdgeBodyIdx].collidedLastStep = true;

        } else if (!hasCollided) {
            // printf("ELSE\n");
            allBodies[minSepVertBodyIdx].collidedLastStep = false;
    25f0:	e3a0cf65 	mov	r12, #404	; 0x194
    25f4:	e59d403c 	ldr	r4, [sp, #60]	; 0x3c
    25f8:	e000049c 	mul	r0, r12, r4
    25fc:	e59d4004 	ldr	r4, [sp, #4]
    2600:	e0842000 	add	r2, r4, r0
    2604:	e3a03000 	mov	r3, #0
    2608:	e5c23264 	strb	r3, [r2, #612]	; 0x264
            allBodies[minSepEdgeBodyIdx].collidedLastStep = false;
    260c:	e59d4044 	ldr	r4, [sp, #68]	; 0x44
    2610:	e002049c 	mul	r2, r12, r4
    2614:	e59d4004 	ldr	r4, [sp, #4]
    2618:	e0841002 	add	r1, r4, r2
    261c:	e5c13264 	strb	r3, [r1, #612]	; 0x264

            allBodies[minSepVertBodyIdx].extForces[forceIndex].isActive = false;
    2620:	e59d4038 	ldr	r4, [sp, #56]	; 0x38
    2624:	e1a01104 	lsl	r1, r4, #2
    2628:	e081c004 	add	r12, r1, r4
    262c:	e080010c 	add	r0, r0, r12, lsl #2
    2630:	e59d4004 	ldr	r4, [sp, #4]
    2634:	e0840000 	add	r0, r4, r0
    2638:	e5c03278 	strb	r3, [r0, #632]	; 0x278
            allBodies[minSepEdgeBodyIdx].extForces[forceIndex].isActive = false;
    263c:	e082210c 	add	r2, r2, r12, lsl #2
    2640:	e59d4004 	ldr	r4, [sp, #4]
    2644:	e0842002 	add	r2, r4, r2
    2648:	e5c23278 	strb	r3, [r2, #632]	; 0x278
    264c:	ea000101 	b	2a58 <checkSATInterBodyCollision+0x76c>

            // Test to see if we have found a seperating axis
            if(miniDot>=maxjDot || maxiDot<=minjDot) {hasCollided = false; break;}

            // If we are still here then we have not found the seperating axis and can still collide.
            float seperation = -floatMin(maxiDot-minjDot, maxjDot-miniDot);
    2650:	e1a00009 	mov	r0, r9
    2654:	e1a0100a 	mov	r1, r10
    2658:	eb0018eb 	bl	8a0c <__aeabi_fsub>
    265c:	e1a05000 	mov	r5, r0
    2660:	e1a00008 	mov	r0, r8
    2664:	e1a01007 	mov	r1, r7
    2668:	eb0018e7 	bl	8a0c <__aeabi_fsub>
    266c:	e1a06000 	mov	r6, r0
    2670:	e1a00005 	mov	r0, r5
    2674:	e1a01006 	mov	r1, r6
    2678:	ebffff13 	bl	22cc <floatMin>
    267c:	e2804102 	add	r4, r0, #-2147483648	; 0x80000000
            // printf("SEP: %f\n\n", seperation);
            if (seperation <= minSep) {
    2680:	e1a00004 	mov	r0, r4
    2684:	e59d1030 	ldr	r1, [sp, #48]	; 0x30
    2688:	eb001a79 	bl	9074 <__aeabi_fcmple>
    268c:	e3500000 	cmp	r0, #0
    2690:	0a000018 	beq	26f8 <checkSATInterBodyCollision+0x40c>
                // printf("we haere\n");
                minSep = seperation;
                minEdgeResponsible.x = dx;
                minEdgeResponsible.y = dy;
                float magPos = sqrt(dx*dx+dy*dy);
    2694:	e59d0014 	ldr	r0, [sp, #20]
    2698:	e1a01000 	mov	r1, r0
    269c:	eb001983 	bl	8cb0 <__aeabi_fmul>
    26a0:	e1a07000 	mov	r7, r0
    26a4:	e59d0010 	ldr	r0, [sp, #16]
    26a8:	e1a01000 	mov	r1, r0
    26ac:	eb00197f 	bl	8cb0 <__aeabi_fmul>
    26b0:	e1a01000 	mov	r1, r0
    26b4:	e1a00007 	mov	r0, r7
    26b8:	eb0018d4 	bl	8a10 <__addsf3>
    26bc:	eb0016ec 	bl	8274 <__aeabi_f2d>
    26c0:	eb000832 	bl	4790 <sqrt>
    26c4:	eb0018a6 	bl	8964 <__aeabi_d2f>
    26c8:	e1a07000 	mov	r7, r0
                normMinEdgeResponsible.x = dy/magPos;
    26cc:	e59d0010 	ldr	r0, [sp, #16]
    26d0:	e1a01007 	mov	r1, r7
    26d4:	eb0019db 	bl	8e48 <__aeabi_fdiv>
    26d8:	e58d0050 	str	r0, [sp, #80]	; 0x50
                normMinEdgeResponsible.y = dx/magPos;
    26dc:	e59d0014 	ldr	r0, [sp, #20]
    26e0:	e1a01007 	mov	r1, r7
    26e4:	eb0019d7 	bl	8e48 <__aeabi_fdiv>
    26e8:	e58d0054 	str	r0, [sp, #84]	; 0x54

                minSepEdgeBodyIdx = vertIdx < VERTICIES_PER_BODY ? i : j;
    26ec:	e35b0003 	cmp	r11, #3
    26f0:	da0000de 	ble	2a70 <checkSATInterBodyCollision+0x784>
    26f4:	ea0000ea 	b	2aa4 <checkSATInterBodyCollision+0x7b8>
        Vector2D minEdgeResponsible, normMinEdgeResponsible;

        bool hasCollided = true;

        // Loop over edge normals of both shapes.
        for(int vertIdx = 0; vertIdx < (VERTICIES_PER_BODY<<1); vertIdx++) {
    26f8:	e28bb001 	add	r11, r11, #1
    26fc:	e35b0008 	cmp	r11, #8
    2700:	1affff33 	bne	23d4 <checkSATInterBodyCollision+0xe8>
    2704:	ea0000f3 	b	2ad8 <checkSATInterBodyCollision+0x7ec>
            }
        }

        if (hasCollided && !bookMarkedCollisions[i][j]) {
            
            bookMarkedCollisions[minSepVertBodyIdx][minSepEdgeBodyIdx] = true;
    2708:	e59d4004 	ldr	r4, [sp, #4]
    270c:	e59dc03c 	ldr	r12, [sp, #60]	; 0x3c
    2710:	e084218c 	add	r2, r4, r12, lsl #3
    2714:	e59d4044 	ldr	r4, [sp, #68]	; 0x44
    2718:	e0822004 	add	r2, r2, r4
    271c:	e3a03001 	mov	r3, #1
    2720:	e5c23188 	strb	r3, [r2, #392]	; 0x188
            bookMarkedCollisions[minSepEdgeBodyIdx][minSepVertBodyIdx] = true;
    2724:	e59dc004 	ldr	r12, [sp, #4]
    2728:	e08c2184 	add	r2, r12, r4, lsl #3
    272c:	e59d403c 	ldr	r4, [sp, #60]	; 0x3c
    2730:	e0822004 	add	r2, r2, r4
    2734:	e5c23188 	strb	r3, [r2, #392]	; 0x188

            allBodies[minSepVertBodyIdx].extForces[forceIndex].isActive = true;
    2738:	e59d4038 	ldr	r4, [sp, #56]	; 0x38
    273c:	e0845104 	add	r5, r4, r4, lsl #2
    2740:	e3a0cf65 	mov	r12, #404	; 0x194
    2744:	e59d003c 	ldr	r0, [sp, #60]	; 0x3c
    2748:	e004009c 	mul	r4, r12, r0
    274c:	e0845105 	add	r5, r4, r5, lsl #2
    2750:	e59d1004 	ldr	r1, [sp, #4]
    2754:	e0815005 	add	r5, r1, r5
    2758:	e5c53278 	strb	r3, [r5, #632]	; 0x278
            allBodies[minSepVertBodyIdx].extForces[forceIndex].force.x = -allBodies[minSepVertBodyIdx].mass * allBodies[minSepVertBodyIdx].a.x;
    275c:	e0814004 	add	r4, r1, r4
    2760:	e5940244 	ldr	r0, [r4, #580]	; 0x244
    2764:	e2800102 	add	r0, r0, #-2147483648	; 0x80000000
    2768:	e5941220 	ldr	r1, [r4, #544]	; 0x220
    276c:	eb00194f 	bl	8cb0 <__aeabi_fmul>
    2770:	e5850270 	str	r0, [r5, #624]	; 0x270
            allBodies[minSepVertBodyIdx].extForces[forceIndex].force.y = -allBodies[minSepVertBodyIdx].mass * allBodies[minSepVertBodyIdx].a.y;
    2774:	e5940244 	ldr	r0, [r4, #580]	; 0x244
    2778:	e2800102 	add	r0, r0, #-2147483648	; 0x80000000
    277c:	e5941224 	ldr	r1, [r4, #548]	; 0x224
    2780:	eb00194a 	bl	8cb0 <__aeabi_fmul>
    2784:	e5850274 	str	r0, [r5, #628]	; 0x274
            allBodies[minSepVertBodyIdx].extForces[forceIndex].r.x = allBodies[minSepVertBodyIdx].pxs[minSepBodyVertIdx] - allBodies[minSepVertBodyIdx].cx;
    2788:	e3a06065 	mov	r6, #101	; 0x65
    278c:	e59d203c 	ldr	r2, [sp, #60]	; 0x3c
    2790:	e59d304c 	ldr	r3, [sp, #76]	; 0x4c
    2794:	e0263296 	mla	r6, r6, r2, r3
    2798:	e59dc004 	ldr	r12, [sp, #4]
    279c:	e08c3106 	add	r3, r12, r6, lsl #2
    27a0:	e59301e8 	ldr	r0, [r3, #488]	; 0x1e8
    27a4:	e5941238 	ldr	r1, [r4, #568]	; 0x238
    27a8:	eb001897 	bl	8a0c <__aeabi_fsub>
    27ac:	e5850268 	str	r0, [r5, #616]	; 0x268
            allBodies[minSepVertBodyIdx].extForces[forceIndex].r.y = allBodies[minSepVertBodyIdx].pys[minSepBodyVertIdx] - allBodies[minSepVertBodyIdx].cy;
    27b0:	e59d0004 	ldr	r0, [sp, #4]
    27b4:	e0806106 	add	r6, r0, r6, lsl #2
    27b8:	e59601f8 	ldr	r0, [r6, #504]	; 0x1f8
    27bc:	e594123c 	ldr	r1, [r4, #572]	; 0x23c
    27c0:	eb001891 	bl	8a0c <__aeabi_fsub>
    27c4:	e585026c 	str	r0, [r5, #620]	; 0x26c

            if(!allBodies[minSepVertBodyIdx].collidedLastStep){
    27c8:	e5d43264 	ldrb	r3, [r4, #612]	; 0x264
    27cc:	e3530000 	cmp	r3, #0
    27d0:	1a000039 	bne	28bc <checkSATInterBodyCollision+0x5d0>
                float velocityVecMag = sqrt(pow(allBodies[minSepVertBodyIdx].v.x, 2) + pow(allBodies[minSepVertBodyIdx].v.x, 2));
    27d4:	e3a01f65 	mov	r1, #404	; 0x194
    27d8:	e59d203c 	ldr	r2, [sp, #60]	; 0x3c
    27dc:	e0040291 	mul	r4, r1, r2
    27e0:	e59d3004 	ldr	r3, [sp, #4]
    27e4:	e0835004 	add	r5, r3, r4
    27e8:	e5950218 	ldr	r0, [r5, #536]	; 0x218
    27ec:	eb0016a0 	bl	8274 <__aeabi_f2d>
    27f0:	e1a02000 	mov	r2, r0
    27f4:	e1a03001 	mov	r3, r1
    27f8:	eb0016ca 	bl	8328 <__aeabi_dmul>
    27fc:	e1a02000 	mov	r2, r0
    2800:	e1a03001 	mov	r3, r1
    2804:	eb0015c3 	bl	7f18 <__adddf3>
    2808:	eb0007e0 	bl	4790 <sqrt>
                float dotMag = dotProd2D(&allBodies[minSepVertBodyIdx].v, &normMinEdgeResponsible);
    280c:	e2840050 	add	r0, r4, #80	; 0x50
    2810:	e59d4048 	ldr	r4, [sp, #72]	; 0x48
    2814:	e0840000 	add	r0, r4, r0
    2818:	e28d1050 	add	r1, sp, #80	; 0x50
    281c:	ebfffe8e 	bl	225c <dotProd2D>
    2820:	e1a06000 	mov	r6, r0
                // dotMag = dotMag < 0 ? dotMag : -dotMag;
                allBodies[minSepVertBodyIdx].v.x = (allBodies[minSepEdgeBodyIdx].mass / allBodies[minSepVertBodyIdx].mass) * dotMag * normMinEdgeResponsible.x * 2 * ELASTICITY_RB;
    2824:	e59dc044 	ldr	r12, [sp, #68]	; 0x44
    2828:	e3a00f65 	mov	r0, #404	; 0x194
    282c:	e59d1004 	ldr	r1, [sp, #4]
    2830:	e0241c90 	mla	r4, r0, r12, r1
    2834:	e5940244 	ldr	r0, [r4, #580]	; 0x244
    2838:	e5951244 	ldr	r1, [r5, #580]	; 0x244
    283c:	eb001981 	bl	8e48 <__aeabi_fdiv>
    2840:	e1a01006 	mov	r1, r6
    2844:	eb001919 	bl	8cb0 <__aeabi_fmul>
    2848:	e59d1050 	ldr	r1, [sp, #80]	; 0x50
    284c:	eb001917 	bl	8cb0 <__aeabi_fmul>
    2850:	e1a01000 	mov	r1, r0
    2854:	eb00186d 	bl	8a10 <__addsf3>
    2858:	eb001685 	bl	8274 <__aeabi_f2d>
    285c:	e309299a 	movw	r2, #39322	; 0x999a
    2860:	e3492999 	movt	r2, #39321	; 0x9999
    2864:	e3093999 	movw	r3, #39321	; 0x9999
    2868:	e3433fd9 	movt	r3, #16345	; 0x3fd9
    286c:	eb0016ad 	bl	8328 <__aeabi_dmul>
    2870:	eb00183b 	bl	8964 <__aeabi_d2f>
    2874:	e5850218 	str	r0, [r5, #536]	; 0x218
                allBodies[minSepVertBodyIdx].v.y = (allBodies[minSepEdgeBodyIdx].mass / allBodies[minSepVertBodyIdx].mass) * dotMag * normMinEdgeResponsible.y * 2 * ELASTICITY_RB;
    2878:	e5940244 	ldr	r0, [r4, #580]	; 0x244
    287c:	e5951244 	ldr	r1, [r5, #580]	; 0x244
    2880:	eb001970 	bl	8e48 <__aeabi_fdiv>
    2884:	e1a01006 	mov	r1, r6
    2888:	eb001908 	bl	8cb0 <__aeabi_fmul>
    288c:	e59d1054 	ldr	r1, [sp, #84]	; 0x54
    2890:	eb001906 	bl	8cb0 <__aeabi_fmul>
    2894:	e1a01000 	mov	r1, r0
    2898:	eb00185c 	bl	8a10 <__addsf3>
    289c:	eb001674 	bl	8274 <__aeabi_f2d>
    28a0:	e309299a 	movw	r2, #39322	; 0x999a
    28a4:	e3492999 	movt	r2, #39321	; 0x9999
    28a8:	e3093999 	movw	r3, #39321	; 0x9999
    28ac:	e3433fd9 	movt	r3, #16345	; 0x3fd9
    28b0:	eb00169c 	bl	8328 <__aeabi_dmul>
    28b4:	eb00182a 	bl	8964 <__aeabi_d2f>
    28b8:	e585021c 	str	r0, [r5, #540]	; 0x21c
            }

            allBodies[minSepEdgeBodyIdx].extForces[forceIndex].isActive = true;
    28bc:	e59d4038 	ldr	r4, [sp, #56]	; 0x38
    28c0:	e0845104 	add	r5, r4, r4, lsl #2
    28c4:	e3a0cf65 	mov	r12, #404	; 0x194
    28c8:	e59d0044 	ldr	r0, [sp, #68]	; 0x44
    28cc:	e004009c 	mul	r4, r12, r0
    28d0:	e0845105 	add	r5, r4, r5, lsl #2
    28d4:	e59d1004 	ldr	r1, [sp, #4]
    28d8:	e0815005 	add	r5, r1, r5
    28dc:	e3a03001 	mov	r3, #1
    28e0:	e5c53278 	strb	r3, [r5, #632]	; 0x278
            allBodies[minSepEdgeBodyIdx].extForces[forceIndex].force.x = -allBodies[minSepEdgeBodyIdx].mass * allBodies[minSepEdgeBodyIdx].a.x;
    28e4:	e0814004 	add	r4, r1, r4
    28e8:	e5940244 	ldr	r0, [r4, #580]	; 0x244
    28ec:	e2800102 	add	r0, r0, #-2147483648	; 0x80000000
    28f0:	e5941220 	ldr	r1, [r4, #544]	; 0x220
    28f4:	eb0018ed 	bl	8cb0 <__aeabi_fmul>
    28f8:	e5850270 	str	r0, [r5, #624]	; 0x270
            allBodies[minSepEdgeBodyIdx].extForces[forceIndex].force.y = -allBodies[minSepEdgeBodyIdx].mass * allBodies[minSepEdgeBodyIdx].a.y;
    28fc:	e5940244 	ldr	r0, [r4, #580]	; 0x244
    2900:	e2800102 	add	r0, r0, #-2147483648	; 0x80000000
    2904:	e5941224 	ldr	r1, [r4, #548]	; 0x224
    2908:	eb0018e8 	bl	8cb0 <__aeabi_fmul>
    290c:	e5850274 	str	r0, [r5, #628]	; 0x274
            allBodies[minSepEdgeBodyIdx].extForces[forceIndex].r.x = allBodies[minSepVertBodyIdx].pxs[minSepBodyVertIdx] - allBodies[minSepEdgeBodyIdx].cx;
    2910:	e3a06065 	mov	r6, #101	; 0x65
    2914:	e59d203c 	ldr	r2, [sp, #60]	; 0x3c
    2918:	e59d304c 	ldr	r3, [sp, #76]	; 0x4c
    291c:	e0263296 	mla	r6, r6, r2, r3
    2920:	e59dc004 	ldr	r12, [sp, #4]
    2924:	e08c3106 	add	r3, r12, r6, lsl #2
    2928:	e59301e8 	ldr	r0, [r3, #488]	; 0x1e8
    292c:	e5941238 	ldr	r1, [r4, #568]	; 0x238
    2930:	eb001835 	bl	8a0c <__aeabi_fsub>
    2934:	e5850268 	str	r0, [r5, #616]	; 0x268
            allBodies[minSepEdgeBodyIdx].extForces[forceIndex].r.y = allBodies[minSepVertBodyIdx].pys[minSepBodyVertIdx] - allBodies[minSepEdgeBodyIdx].cy;
    2938:	e59d0004 	ldr	r0, [sp, #4]
    293c:	e0806106 	add	r6, r0, r6, lsl #2
    2940:	e59601f8 	ldr	r0, [r6, #504]	; 0x1f8
    2944:	e594123c 	ldr	r1, [r4, #572]	; 0x23c
    2948:	eb00182f 	bl	8a0c <__aeabi_fsub>
    294c:	e585026c 	str	r0, [r5, #620]	; 0x26c
            
            if(!allBodies[minSepEdgeBodyIdx].collidedLastStep){
    2950:	e5d43264 	ldrb	r3, [r4, #612]	; 0x264
    2954:	e3530000 	cmp	r3, #0
    2958:	1a000035 	bne	2a34 <checkSATInterBodyCollision+0x748>
                allBodies[minSepEdgeBodyIdx].v.x *= -(allBodies[minSepVertBodyIdx].mass / allBodies[minSepEdgeBodyIdx].mass) * 2 * ELASTICITY_RB;
    295c:	e59d1044 	ldr	r1, [sp, #68]	; 0x44
    2960:	e3a02f65 	mov	r2, #404	; 0x194
    2964:	e59d3004 	ldr	r3, [sp, #4]
    2968:	e0243192 	mla	r4, r2, r1, r3
    296c:	e5940218 	ldr	r0, [r4, #536]	; 0x218
    2970:	eb00163f 	bl	8274 <__aeabi_f2d>
    2974:	e1a06000 	mov	r6, r0
    2978:	e1a07001 	mov	r7, r1
    297c:	e59dc03c 	ldr	r12, [sp, #60]	; 0x3c
    2980:	e3a00f65 	mov	r0, #404	; 0x194
    2984:	e59d1004 	ldr	r1, [sp, #4]
    2988:	e0251c90 	mla	r5, r0, r12, r1
    298c:	e5950244 	ldr	r0, [r5, #580]	; 0x244
    2990:	e5941244 	ldr	r1, [r4, #580]	; 0x244
    2994:	eb00192b 	bl	8e48 <__aeabi_fdiv>
    2998:	e2801102 	add	r1, r0, #-2147483648	; 0x80000000
    299c:	e1a00001 	mov	r0, r1
    29a0:	eb00181a 	bl	8a10 <__addsf3>
    29a4:	eb001632 	bl	8274 <__aeabi_f2d>
    29a8:	e309299a 	movw	r2, #39322	; 0x999a
    29ac:	e3492999 	movt	r2, #39321	; 0x9999
    29b0:	e3093999 	movw	r3, #39321	; 0x9999
    29b4:	e3433fd9 	movt	r3, #16345	; 0x3fd9
    29b8:	eb00165a 	bl	8328 <__aeabi_dmul>
    29bc:	e1a02000 	mov	r2, r0
    29c0:	e1a03001 	mov	r3, r1
    29c4:	e1a00006 	mov	r0, r6
    29c8:	e1a01007 	mov	r1, r7
    29cc:	eb001655 	bl	8328 <__aeabi_dmul>
    29d0:	eb0017e3 	bl	8964 <__aeabi_d2f>
    29d4:	e5840218 	str	r0, [r4, #536]	; 0x218
                allBodies[minSepEdgeBodyIdx].v.y *= -(allBodies[minSepVertBodyIdx].mass / allBodies[minSepEdgeBodyIdx].mass) * 2 * ELASTICITY_RB;
    29d8:	e594021c 	ldr	r0, [r4, #540]	; 0x21c
    29dc:	eb001624 	bl	8274 <__aeabi_f2d>
    29e0:	e1a06000 	mov	r6, r0
    29e4:	e1a07001 	mov	r7, r1
    29e8:	e5950244 	ldr	r0, [r5, #580]	; 0x244
    29ec:	e5941244 	ldr	r1, [r4, #580]	; 0x244
    29f0:	eb001914 	bl	8e48 <__aeabi_fdiv>
    29f4:	e2801102 	add	r1, r0, #-2147483648	; 0x80000000
    29f8:	e1a00001 	mov	r0, r1
    29fc:	eb001803 	bl	8a10 <__addsf3>
    2a00:	eb00161b 	bl	8274 <__aeabi_f2d>
    2a04:	e309299a 	movw	r2, #39322	; 0x999a
    2a08:	e3492999 	movt	r2, #39321	; 0x9999
    2a0c:	e3093999 	movw	r3, #39321	; 0x9999
    2a10:	e3433fd9 	movt	r3, #16345	; 0x3fd9
    2a14:	eb001643 	bl	8328 <__aeabi_dmul>
    2a18:	e1a02000 	mov	r2, r0
    2a1c:	e1a03001 	mov	r3, r1
    2a20:	e1a00006 	mov	r0, r6
    2a24:	e1a01007 	mov	r1, r7
    2a28:	eb00163e 	bl	8328 <__aeabi_dmul>
    2a2c:	eb0017cc 	bl	8964 <__aeabi_d2f>
    2a30:	e584021c 	str	r0, [r4, #540]	; 0x21c
            }

            // printf("Collision detected between bodies %d ", minSepEdgeBodyIdx);
            // printf("and %d\n", minSepVertBodyIdx);

            allBodies[minSepVertBodyIdx].collidedLastStep = true;
    2a34:	e59d403c 	ldr	r4, [sp, #60]	; 0x3c
    2a38:	e3a0cf65 	mov	r12, #404	; 0x194
    2a3c:	e59d0004 	ldr	r0, [sp, #4]
    2a40:	e022049c 	mla	r2, r12, r4, r0
    2a44:	e3a03001 	mov	r3, #1
    2a48:	e5c23264 	strb	r3, [r2, #612]	; 0x264
            allBodies[minSepEdgeBodyIdx].collidedLastStep = true;
    2a4c:	e59d4044 	ldr	r4, [sp, #68]	; 0x44
    2a50:	e022049c 	mla	r2, r12, r4, r0
    2a54:	e5c23264 	strb	r3, [r2, #612]	; 0x264
    float maxiDot, miniDot;
    float maxjDot, minjDot;

    int forceIndex = VERTICIES_PER_BODY - 1;

    for(int j = 0; j < NUM_BODIES; j++){
    2a58:	e59d4008 	ldr	r4, [sp, #8]
    2a5c:	e2844001 	add	r4, r4, #1
    2a60:	e58d4008 	str	r4, [sp, #8]
    2a64:	e3540008 	cmp	r4, #8
    2a68:	1afffe35 	bne	2344 <checkSATInterBodyCollision+0x58>
    2a6c:	ea00002f 	b	2b30 <checkSATInterBodyCollision+0x844>

                minSepEdgeBodyIdx = vertIdx < VERTICIES_PER_BODY ? i : j;
                minSepVertBodyIdx = minSepEdgeBodyIdx == i ? j : i;
                
                // Which vert of the vert body is responsible:
                if(maxiDot-minjDot < maxjDot-miniDot) {
    2a70:	e1a00005 	mov	r0, r5
    2a74:	e1a01006 	mov	r1, r6
    2a78:	eb001977 	bl	905c <__aeabi_fcmplt>
    2a7c:	e3500000 	cmp	r0, #0
    2a80:	1a000022 	bne	2b10 <checkSATInterBodyCollision+0x824>
                    }
                } else {
                    if (minSepVertBodyIdx==i){
                        minSepBodyVertIdx = testiIdxMin;
                    } else {
                        minSepBodyVertIdx = testjIdxMax;
    2a84:	e3a0c000 	mov	r12, #0
    2a88:	e58dc04c 	str	r12, [sp, #76]	; 0x4c

                minSepEdgeBodyIdx = vertIdx < VERTICIES_PER_BODY ? i : j;
                minSepVertBodyIdx = minSepEdgeBodyIdx == i ? j : i;
                
                // Which vert of the vert body is responsible:
                if(maxiDot-minjDot < maxjDot-miniDot) {
    2a8c:	e59d0008 	ldr	r0, [sp, #8]
    2a90:	e58d003c 	str	r0, [sp, #60]	; 0x3c
                minEdgeResponsible.y = dy;
                float magPos = sqrt(dx*dx+dy*dy);
                normMinEdgeResponsible.x = dy/magPos;
                normMinEdgeResponsible.y = dx/magPos;

                minSepEdgeBodyIdx = vertIdx < VERTICIES_PER_BODY ? i : j;
    2a94:	e59d1020 	ldr	r1, [sp, #32]
    2a98:	e58d1044 	str	r1, [sp, #68]	; 0x44
            // If we are still here then we have not found the seperating axis and can still collide.
            float seperation = -floatMin(maxiDot-minjDot, maxjDot-miniDot);
            // printf("SEP: %f\n\n", seperation);
            if (seperation <= minSep) {
                // printf("we haere\n");
                minSep = seperation;
    2a9c:	e58d4030 	str	r4, [sp, #48]	; 0x30
    2aa0:	eaffff14 	b	26f8 <checkSATInterBodyCollision+0x40c>

                minSepEdgeBodyIdx = vertIdx < VERTICIES_PER_BODY ? i : j;
                minSepVertBodyIdx = minSepEdgeBodyIdx == i ? j : i;
                
                // Which vert of the vert body is responsible:
                if(maxiDot-minjDot < maxjDot-miniDot) {
    2aa4:	e1a00005 	mov	r0, r5
    2aa8:	e1a01006 	mov	r1, r6
    2aac:	eb00196a 	bl	905c <__aeabi_fcmplt>
    2ab0:	e3500000 	cmp	r0, #0
    2ab4:	1a00000d 	bne	2af0 <checkSATInterBodyCollision+0x804>
    2ab8:	e59d2018 	ldr	r2, [sp, #24]
    2abc:	e58d204c 	str	r2, [sp, #76]	; 0x4c
                float magPos = sqrt(dx*dx+dy*dy);
                normMinEdgeResponsible.x = dy/magPos;
                normMinEdgeResponsible.y = dx/magPos;

                minSepEdgeBodyIdx = vertIdx < VERTICIES_PER_BODY ? i : j;
                minSepVertBodyIdx = minSepEdgeBodyIdx == i ? j : i;
    2ac0:	e59d3020 	ldr	r3, [sp, #32]
    2ac4:	e58d303c 	str	r3, [sp, #60]	; 0x3c
                
                // Which vert of the vert body is responsible:
                if(maxiDot-minjDot < maxjDot-miniDot) {
    2ac8:	e59dc008 	ldr	r12, [sp, #8]
    2acc:	e58dc044 	str	r12, [sp, #68]	; 0x44
            // If we are still here then we have not found the seperating axis and can still collide.
            float seperation = -floatMin(maxiDot-minjDot, maxjDot-miniDot);
            // printf("SEP: %f\n\n", seperation);
            if (seperation <= minSep) {
                // printf("we haere\n");
                minSep = seperation;
    2ad0:	e58d4030 	str	r4, [sp, #48]	; 0x30
    2ad4:	eaffff07 	b	26f8 <checkSATInterBodyCollision+0x40c>
                }

            }
        }

        if (hasCollided && !bookMarkedCollisions[i][j]) {
    2ad8:	e59dc040 	ldr	r12, [sp, #64]	; 0x40
    2adc:	e59d402c 	ldr	r4, [sp, #44]	; 0x2c
    2ae0:	e7dc3004 	ldrb	r3, [r12, r4]
    2ae4:	e3530000 	cmp	r3, #0
    2ae8:	1affffda 	bne	2a58 <checkSATInterBodyCollision+0x76c>
    2aec:	eaffff05 	b	2708 <checkSATInterBodyCollision+0x41c>

                minSepEdgeBodyIdx = vertIdx < VERTICIES_PER_BODY ? i : j;
                minSepVertBodyIdx = minSepEdgeBodyIdx == i ? j : i;
                
                // Which vert of the vert body is responsible:
                if(maxiDot-minjDot < maxjDot-miniDot) {
    2af0:	e59d000c 	ldr	r0, [sp, #12]
    2af4:	e58d004c 	str	r0, [sp, #76]	; 0x4c
    2af8:	e59d1020 	ldr	r1, [sp, #32]
    2afc:	e58d103c 	str	r1, [sp, #60]	; 0x3c
    2b00:	e59d2008 	ldr	r2, [sp, #8]
    2b04:	e58d2044 	str	r2, [sp, #68]	; 0x44
            // If we are still here then we have not found the seperating axis and can still collide.
            float seperation = -floatMin(maxiDot-minjDot, maxjDot-miniDot);
            // printf("SEP: %f\n\n", seperation);
            if (seperation <= minSep) {
                // printf("we haere\n");
                minSep = seperation;
    2b08:	e58d4030 	str	r4, [sp, #48]	; 0x30
    2b0c:	eafffef9 	b	26f8 <checkSATInterBodyCollision+0x40c>

                minSepEdgeBodyIdx = vertIdx < VERTICIES_PER_BODY ? i : j;
                minSepVertBodyIdx = minSepEdgeBodyIdx == i ? j : i;
                
                // Which vert of the vert body is responsible:
                if(maxiDot-minjDot < maxjDot-miniDot) {
    2b10:	e59d301c 	ldr	r3, [sp, #28]
    2b14:	e58d304c 	str	r3, [sp, #76]	; 0x4c
    2b18:	e59dc008 	ldr	r12, [sp, #8]
    2b1c:	e58dc03c 	str	r12, [sp, #60]	; 0x3c
                minEdgeResponsible.y = dy;
                float magPos = sqrt(dx*dx+dy*dy);
                normMinEdgeResponsible.x = dy/magPos;
                normMinEdgeResponsible.y = dx/magPos;

                minSepEdgeBodyIdx = vertIdx < VERTICIES_PER_BODY ? i : j;
    2b20:	e59d0020 	ldr	r0, [sp, #32]
    2b24:	e58d0044 	str	r0, [sp, #68]	; 0x44
            // If we are still here then we have not found the seperating axis and can still collide.
            float seperation = -floatMin(maxiDot-minjDot, maxjDot-miniDot);
            // printf("SEP: %f\n\n", seperation);
            if (seperation <= minSep) {
                // printf("we haere\n");
                minSep = seperation;
    2b28:	e58d4030 	str	r4, [sp, #48]	; 0x30
    2b2c:	eafffef1 	b	26f8 <checkSATInterBodyCollision+0x40c>
            allBodies[minSepVertBodyIdx].extForces[forceIndex].isActive = false;
            allBodies[minSepEdgeBodyIdx].extForces[forceIndex].isActive = false;
        }

    }
}
    2b30:	e28dd06c 	add	sp, sp, #108	; 0x6c
    2b34:	e8bd8ff0 	pop	{r4, r5, r6, r7, r8, r9, r10, r11, pc}
    2b38:	0010dbc4 	.word	0x0010dbc4

00002b3c <initRigidBodies>:

void initRigidBodies() {
    2b3c:	e92d4ff0 	push	{r4, r5, r6, r7, r8, r9, r10, r11, lr}
    2b40:	e24dd044 	sub	sp, sp, #68	; 0x44
    int xStepCount = 0;
    int yStepCount = 0;

    for (int i = 0; i < NUM_BODIES; i++) {

        allBodies[i].colour = RB_COLOUR;
    2b44:	e30d3a3c 	movw	r3, #55868	; 0xda3c
    2b48:	e3403010 	movt	r3, #16
    2b4c:	e3a01e7e 	mov	r1, #2016	; 0x7e0
    2b50:	e3a02fd6 	mov	r2, #856	; 0x358
    2b54:	e18310b2 	strh	r1, [r3, r2]
    2b58:	e2833e4e 	add	r3, r3, #1248	; 0x4e0
    2b5c:	e283300c 	add	r3, r3, #12
    2b60:	e58d301c 	str	r3, [sp, #28]
    int initY = stepY/2;

    int xStepCount = 0;
    int yStepCount = 0;

    for (int i = 0; i < NUM_BODIES; i++) {
    2b64:	e3a01000 	mov	r1, #0
    2b68:	e58d1014 	str	r1, [sp, #20]

    int initX = stepX/2;
    int initY = stepY/2;

    int xStepCount = 0;
    int yStepCount = 0;
    2b6c:	e58d1020 	str	r1, [sp, #32]
    int avgStepParam =  (stepX + stepY) >> 3;

    int initX = stepX/2;
    int initY = stepY/2;

    int xStepCount = 0;
    2b70:	e58d1024 	str	r1, [sp, #36]	; 0x24
        }

    }
}

void initRigidBodies() {
    2b74:	e30d2a3c 	movw	r2, #55868	; 0xda3c
    2b78:	e3402010 	movt	r2, #16
    2b7c:	e58d2038 	str	r2, [sp, #56]	; 0x38
    2b80:	e2823ee6 	add	r3, r2, #3680	; 0xe60
    2b84:	e2833008 	add	r3, r3, #8
    2b88:	e58d303c 	str	r3, [sp, #60]	; 0x3c
    2b8c:	ea00000b 	b	2bc0 <initRigidBodies+0x84>
    int xStepCount = 0;
    int yStepCount = 0;

    for (int i = 0; i < NUM_BODIES; i++) {

        allBodies[i].colour = RB_COLOUR;
    2b90:	e3a03e7e 	mov	r3, #2016	; 0x7e0
    2b94:	e1cb30b0 	strh	r3, [r11]

        if(xStepCount >= amtColumns) {
    2b98:	e59d1024 	ldr	r1, [sp, #36]	; 0x24
    2b9c:	e3510003 	cmp	r1, #3
            xStepCount = 0;
            yStepCount++;
    2ba0:	c59d2020 	ldrgt	r2, [sp, #32]
    2ba4:	c2822001 	addgt	r2, r2, #1
    2ba8:	c58d2020 	strgt	r2, [sp, #32]
    for (int i = 0; i < NUM_BODIES; i++) {

        allBodies[i].colour = RB_COLOUR;

        if(xStepCount >= amtColumns) {
            xStepCount = 0;
    2bac:	c3a03000 	movgt	r3, #0
    2bb0:	c58d3024 	strgt	r3, [sp, #36]	; 0x24
    2bb4:	e59d101c 	ldr	r1, [sp, #28]
    2bb8:	e2811f65 	add	r1, r1, #404	; 0x194
    2bbc:	e58d101c 	str	r1, [sp, #28]
            yStepCount++;
        }
        if(yStepCount >= amtRows) {
            yStepCount = 0;
    2bc0:	e59d2020 	ldr	r2, [sp, #32]
    2bc4:	e3520002 	cmp	r2, #2
    2bc8:	c3a02000 	movgt	r2, #0
    2bcc:	e58d2020 	str	r2, [sp, #32]
        }

        int centX = initX + xStepCount * stepX;
    2bd0:	e59d1024 	ldr	r1, [sp, #36]	; 0x24
    2bd4:	e0813101 	add	r3, r1, r1, lsl #2
    2bd8:	e1a03203 	lsl	r3, r3, #4
    2bdc:	e2833028 	add	r3, r3, #40	; 0x28
    2be0:	e58d3028 	str	r3, [sp, #40]	; 0x28
        int centY = initY + yStepCount * stepY;
    2be4:	e0823102 	add	r3, r2, r2, lsl #2
    2be8:	e1a03203 	lsl	r3, r3, #4
    2bec:	e2833028 	add	r3, r3, #40	; 0x28
    2bf0:	e58d302c 	str	r3, [sp, #44]	; 0x2c
        }

    }
}

void initRigidBodies() {
    2bf4:	e59db01c 	ldr	r11, [sp, #28]
        float sumX = 0;
        float sumY = 0;

        float runningAreaCount = 0;

        allBodies[i].v.x = 0;
    2bf8:	e3a02000 	mov	r2, #0
    2bfc:	e50b22d4 	str	r2, [r11, #-724]	; 0xfffffd2c
        allBodies[i].v.y = rand() % VERT_VARIANCE - (VERT_VARIANCE >> 1);
    2c00:	eb001964 	bl	9198 <rand>
    2c04:	e3a01000 	mov	r1, #0
    2c08:	eb0014b6 	bl	7ee8 <__aeabi_idivmod>
    2c0c:	e1a00001 	mov	r0, r1
    2c10:	eb0017ef 	bl	8bd4 <__aeabi_i2f>
    2c14:	e59d301c 	ldr	r3, [sp, #28]
    2c18:	e50302d0 	str	r0, [r3, #-720]	; 0xfffffd30
        allBodies[i].theta = 0;
    2c1c:	e3a01000 	mov	r1, #0
    2c20:	e50312a4 	str	r1, [r3, #-676]	; 0xfffffd5c
        allBodies[i].omega = 0;
    2c24:	e5031290 	str	r1, [r3, #-656]	; 0xfffffd70
        }

    }
}

void initRigidBodies() {
    2c28:	e59d2038 	ldr	r2, [sp, #56]	; 0x38
    2c2c:	e2823f72 	add	r3, r2, #456	; 0x1c8
    2c30:	e3a02f65 	mov	r2, #404	; 0x194
    2c34:	e59d1014 	ldr	r1, [sp, #20]
    2c38:	e0223192 	mla	r2, r2, r1, r3
    2c3c:	e58d2030 	str	r2, [sp, #48]	; 0x30
    2c40:	e59d203c 	ldr	r2, [sp, #60]	; 0x3c
    2c44:	e0825281 	add	r5, r2, r1, lsl #5
    2c48:	e59d6030 	ldr	r6, [sp, #48]	; 0x30
    2c4c:	e3a07000 	mov	r7, #0
        bool changeFlag = false;

        float sumX = 0;
        float sumY = 0;

        float runningAreaCount = 0;
    2c50:	e3a03000 	mov	r3, #0
    2c54:	e58d3008 	str	r3, [sp, #8]
        int signX = -1;
        int signY = -1;
        bool changeFlag = false;

        float sumX = 0;
        float sumY = 0;
    2c58:	e58d3010 	str	r3, [sp, #16]

        int signX = -1;
        int signY = -1;
        bool changeFlag = false;

        float sumX = 0;
    2c5c:	e58d3004 	str	r3, [sp, #4]
        int centX = initX + xStepCount * stepX;
        int centY = initY + yStepCount * stepY;

        int signX = -1;
        int signY = -1;
        bool changeFlag = false;
    2c60:	e58d7018 	str	r7, [sp, #24]

        int centX = initX + xStepCount * stepX;
        int centY = initY + yStepCount * stepY;

        int signX = -1;
        int signY = -1;
    2c64:	e3e09000 	mvn	r9, #0
        }

        int centX = initX + xStepCount * stepX;
        int centY = initY + yStepCount * stepY;

        int signX = -1;
    2c68:	e1a08009 	mov	r8, r9
    2c6c:	e58db034 	str	r11, [sp, #52]	; 0x34
    2c70:	ea000002 	b	2c80 <initRigidBodies+0x144>
    2c74:	e2877001 	add	r7, r7, #1
    2c78:	e2866004 	add	r6, r6, #4
    2c7c:	e2855004 	add	r5, r5, #4
        allBodies[i].theta = 0;
        allBodies[i].omega = 0;

        for (int j = 0; j < VERTICIES_PER_BODY; j++) {

            srand(i+j);
    2c80:	e59d3014 	ldr	r3, [sp, #20]
    2c84:	e0870003 	add	r0, r7, r3
    2c88:	eb00193b 	bl	917c <srand>
            allBodies[i].xs[j] = centX + signX*avgStepParam + rand() % VERT_VARIANCE - (VERT_VARIANCE >> 1);
    2c8c:	e0884108 	add	r4, r8, r8, lsl #2
    2c90:	e59d1028 	ldr	r1, [sp, #40]	; 0x28
    2c94:	e0814104 	add	r4, r1, r4, lsl #2
    2c98:	eb00193e 	bl	9198 <rand>
        }

    }
}

void initRigidBodies() {
    2c9c:	e1a0b006 	mov	r11, r6
        allBodies[i].omega = 0;

        for (int j = 0; j < VERTICIES_PER_BODY; j++) {

            srand(i+j);
            allBodies[i].xs[j] = centX + signX*avgStepParam + rand() % VERT_VARIANCE - (VERT_VARIANCE >> 1);
    2ca0:	e3a01000 	mov	r1, #0
    2ca4:	eb00148f 	bl	7ee8 <__aeabi_idivmod>
    2ca8:	e0841001 	add	r1, r4, r1
    2cac:	e5861000 	str	r1, [r6]
            allBodies[i].ys[j] = centY + signY*avgStepParam + rand() % VERT_VARIANCE - (VERT_VARIANCE >> 1);
    2cb0:	e0894109 	add	r4, r9, r9, lsl #2
    2cb4:	e59d202c 	ldr	r2, [sp, #44]	; 0x2c
    2cb8:	e0824104 	add	r4, r2, r4, lsl #2
    2cbc:	eb001935 	bl	9198 <rand>
    2cc0:	e3a01000 	mov	r1, #0
    2cc4:	eb001487 	bl	7ee8 <__aeabi_idivmod>
    2cc8:	e0844001 	add	r4, r4, r1
    2ccc:	e5864010 	str	r4, [r6, #16]
            
            eraseRBs[i].xs[j] = allBodies[i].xs[j];
    2cd0:	e5960000 	ldr	r0, [r6]
    2cd4:	e5850000 	str	r0, [r5]
            eraseRBs[i].ys[j] = allBodies[i].ys[j];
    2cd8:	e5854010 	str	r4, [r5, #16]

            allBodies[i].pxs[j] = M_PER_PX_RB * allBodies[i].xs[j];
    2cdc:	eb00155a 	bl	824c <__aeabi_i2d>
    2ce0:	eb00171f 	bl	8964 <__aeabi_d2f>
    2ce4:	e1a0a000 	mov	r10, r0
    2ce8:	e5860020 	str	r0, [r6, #32]
            allBodies[i].pys[j] = M_PER_PX_RB * allBodies[i].ys[j];
    2cec:	e1a00004 	mov	r0, r4
    2cf0:	eb001555 	bl	824c <__aeabi_i2d>
    2cf4:	eb00171a 	bl	8964 <__aeabi_d2f>
    2cf8:	e1a04000 	mov	r4, r0
    2cfc:	e5860030 	str	r0, [r6, #48]	; 0x30

            sumX += allBodies[i].pxs[j];
    2d00:	e59d0004 	ldr	r0, [sp, #4]
    2d04:	e1a0100a 	mov	r1, r10
    2d08:	eb001740 	bl	8a10 <__addsf3>
    2d0c:	e58d0004 	str	r0, [sp, #4]
            sumY += allBodies[i].pys[j];
    2d10:	e59d0010 	ldr	r0, [sp, #16]
    2d14:	e1a01004 	mov	r1, r4
    2d18:	eb00173c 	bl	8a10 <__addsf3>
    2d1c:	e58d0010 	str	r0, [sp, #16]

            // printf("\nsX:%d", signX);
            // printf("\nsY:%d\n\n", signY);

            if(signX == -1) {
    2d20:	e3780001 	cmn	r8, #1
                signX = 1;
    2d24:	03a08001 	moveq	r8, #1
            sumY += allBodies[i].pys[j];

            // printf("\nsX:%d", signX);
            // printf("\nsY:%d\n\n", signY);

            if(signX == -1) {
    2d28:	0a000006 	beq	2d48 <initRigidBodies+0x20c>
                signX = 1;
            } else {
                if(changeFlag) {
    2d2c:	e59d3018 	ldr	r3, [sp, #24]
    2d30:	e3530000 	cmp	r3, #0
                    signX = -1;
                    changeFlag = false;
                }
                changeFlag = true;
    2d34:	03a01001 	moveq	r1, #1
    2d38:	058d1018 	streq	r1, [sp, #24]
                signY = 1;
    2d3c:	01a09001 	moveq	r9, r1
    2d40:	13a09001 	movne	r9, #1

            if(signX == -1) {
                signX = 1;
            } else {
                if(changeFlag) {
                    signX = -1;
    2d44:	13e08000 	mvnne	r8, #0
                }
                changeFlag = true;
                signY = 1;
            }

            if(j!=0) runningAreaCount += (allBodies[i].pxs[j-1] + allBodies[i].pxs[j]) * (allBodies[i].pys[j-1] - allBodies[i].pys[j]) / 2.0;
    2d48:	e3570000 	cmp	r7, #0
    2d4c:	0affffc8 	beq	2c74 <initRigidBodies+0x138>
    2d50:	e59d0008 	ldr	r0, [sp, #8]
    2d54:	eb001546 	bl	8274 <__aeabi_f2d>
    2d58:	e1cd00f8 	strd	r0, [sp, #8]
    2d5c:	e1a0000a 	mov	r0, r10
    2d60:	e59b101c 	ldr	r1, [r11, #28]
    2d64:	eb001729 	bl	8a10 <__addsf3>
    2d68:	e1a0a000 	mov	r10, r0
    2d6c:	e59b002c 	ldr	r0, [r11, #44]	; 0x2c
    2d70:	e1a01004 	mov	r1, r4
    2d74:	eb001724 	bl	8a0c <__aeabi_fsub>
    2d78:	e1a01000 	mov	r1, r0
    2d7c:	e1a0000a 	mov	r0, r10
    2d80:	eb0017ca 	bl	8cb0 <__aeabi_fmul>
    2d84:	eb00153a 	bl	8274 <__aeabi_f2d>
    2d88:	e3a02000 	mov	r2, #0
    2d8c:	e3a03000 	mov	r3, #0
    2d90:	e3433fe0 	movt	r3, #16352	; 0x3fe0
    2d94:	eb001563 	bl	8328 <__aeabi_dmul>
    2d98:	e1a02000 	mov	r2, r0
    2d9c:	e1a03001 	mov	r3, r1
    2da0:	e1cd00d8 	ldrd	r0, [sp, #8]
    2da4:	eb00145b 	bl	7f18 <__adddf3>
    2da8:	eb0016ed 	bl	8964 <__aeabi_d2f>
    2dac:	e58d0008 	str	r0, [sp, #8]
        }

    }
}

void initRigidBodies() {
    2db0:	e2873001 	add	r3, r7, #1
        allBodies[i].v.x = 0;
        allBodies[i].v.y = rand() % VERT_VARIANCE - (VERT_VARIANCE >> 1);
        allBodies[i].theta = 0;
        allBodies[i].omega = 0;

        for (int j = 0; j < VERTICIES_PER_BODY; j++) {
    2db4:	e3530003 	cmp	r3, #3
    2db8:	daffffad 	ble	2c74 <initRigidBodies+0x138>
    2dbc:	e59db034 	ldr	r11, [sp, #52]	; 0x34

            if(j!=0) runningAreaCount += (allBodies[i].pxs[j-1] + allBodies[i].pxs[j]) * (allBodies[i].pys[j-1] - allBodies[i].pys[j]) / 2.0;

        }

        runningAreaCount += (allBodies[i].pxs[VERTICIES_PER_BODY-1] + allBodies[i].pxs[0]) * (allBodies[i].pys[VERTICIES_PER_BODY-1] - allBodies[i].pys[0]) / 2.0;
    2dc0:	eb00152b 	bl	8274 <__aeabi_f2d>
    2dc4:	e1a04000 	mov	r4, r0
    2dc8:	e1a05001 	mov	r5, r1
    2dcc:	e51b02f8 	ldr	r0, [r11, #-760]	; 0xfffffd08
    2dd0:	e51b1304 	ldr	r1, [r11, #-772]	; 0xfffffcfc
    2dd4:	eb00170d 	bl	8a10 <__addsf3>
    2dd8:	e1a06000 	mov	r6, r0
    2ddc:	e51b02e8 	ldr	r0, [r11, #-744]	; 0xfffffd18
    2de0:	e51b12f4 	ldr	r1, [r11, #-756]	; 0xfffffd0c
    2de4:	eb001708 	bl	8a0c <__aeabi_fsub>
    2de8:	e1a01000 	mov	r1, r0
    2dec:	e1a00006 	mov	r0, r6
    2df0:	eb0017ae 	bl	8cb0 <__aeabi_fmul>
    2df4:	eb00151e 	bl	8274 <__aeabi_f2d>
    2df8:	e3a02000 	mov	r2, #0
    2dfc:	e3a03000 	mov	r3, #0
    2e00:	e3433fe0 	movt	r3, #16352	; 0x3fe0
    2e04:	eb001547 	bl	8328 <__aeabi_dmul>
    2e08:	e1a02000 	mov	r2, r0
    2e0c:	e1a03001 	mov	r3, r1
    2e10:	e1a00004 	mov	r0, r4
    2e14:	e1a01005 	mov	r1, r5
    2e18:	eb00143e 	bl	7f18 <__adddf3>
    2e1c:	eb0016d0 	bl	8964 <__aeabi_d2f>
    2e20:	e58d0018 	str	r0, [sp, #24]

        allBodies[i].cx = sumX / (float)VERTICIES_PER_BODY;
    2e24:	e59d0004 	ldr	r0, [sp, #4]
    2e28:	e3a015fa 	mov	r1, #1048576000	; 0x3e800000
    2e2c:	eb00179f 	bl	8cb0 <__aeabi_fmul>
    2e30:	e50b02b4 	str	r0, [r11, #-692]	; 0xfffffd4c
        allBodies[i].cy = sumY / (float)VERTICIES_PER_BODY;
    2e34:	e59d0010 	ldr	r0, [sp, #16]
    2e38:	e3a015fa 	mov	r1, #1048576000	; 0x3e800000
    2e3c:	eb00179b 	bl	8cb0 <__aeabi_fmul>
    2e40:	e50b02b0 	str	r0, [r11, #-688]	; 0xfffffd50
        float maxX = -1;
        float maxY = -1;
        float minX = M_PER_PX_RB * MAX_X;
        float minY = M_PER_PX_RB * MAX_Y;

        for (int j = 0; j < VERTICIES_PER_BODY; j++) {
    2e44:	e3a08000 	mov	r8, #0
        allBodies[i].cy = sumY / (float)VERTICIES_PER_BODY;

        float maxX = -1;
        float maxY = -1;
        float minX = M_PER_PX_RB * MAX_X;
        float minY = M_PER_PX_RB * MAX_Y;
    2e48:	e3a09000 	mov	r9, #0
    2e4c:	e3449370 	movt	r9, #17264	; 0x4370
        allBodies[i].cx = sumX / (float)VERTICIES_PER_BODY;
        allBodies[i].cy = sumY / (float)VERTICIES_PER_BODY;

        float maxX = -1;
        float maxY = -1;
        float minX = M_PER_PX_RB * MAX_X;
    2e50:	e3a02000 	mov	r2, #0
    2e54:	e34423a0 	movt	r2, #17312	; 0x43a0
    2e58:	e58d2010 	str	r2, [sp, #16]

        allBodies[i].cx = sumX / (float)VERTICIES_PER_BODY;
        allBodies[i].cy = sumY / (float)VERTICIES_PER_BODY;

        float maxX = -1;
        float maxY = -1;
    2e5c:	e3a0a000 	mov	r10, #0
    2e60:	e34baf80 	movt	r10, #49024	; 0xbf80
        runningAreaCount += (allBodies[i].pxs[VERTICIES_PER_BODY-1] + allBodies[i].pxs[0]) * (allBodies[i].pys[VERTICIES_PER_BODY-1] - allBodies[i].pys[0]) / 2.0;

        allBodies[i].cx = sumX / (float)VERTICIES_PER_BODY;
        allBodies[i].cy = sumY / (float)VERTICIES_PER_BODY;

        float maxX = -1;
    2e64:	e58da004 	str	r10, [sp, #4]
    2e68:	e58da008 	str	r10, [sp, #8]
    2e6c:	e59d6030 	ldr	r6, [sp, #48]	; 0x30
        float minX = M_PER_PX_RB * MAX_X;
        float minY = M_PER_PX_RB * MAX_Y;

        for (int j = 0; j < VERTICIES_PER_BODY; j++) {

            maxX = allBodies[i].pxs[j] > maxX ? allBodies[i].pxs[j] : maxX;
    2e70:	e5965020 	ldr	r5, [r6, #32]
    2e74:	e1a00005 	mov	r0, r5
    2e78:	e59d1004 	ldr	r1, [sp, #4]
    2e7c:	eb001888 	bl	90a4 <__aeabi_fcmpgt>
    2e80:	e3500000 	cmp	r0, #0
    2e84:	158d5004 	strne	r5, [sp, #4]
            maxY = allBodies[i].pys[j] > maxY ? allBodies[i].pys[j] : maxY;
    2e88:	e5964030 	ldr	r4, [r6, #48]	; 0x30
    2e8c:	e1a00004 	mov	r0, r4
    2e90:	e59d1008 	ldr	r1, [sp, #8]
    2e94:	eb001882 	bl	90a4 <__aeabi_fcmpgt>
    2e98:	e3500000 	cmp	r0, #0
    2e9c:	158d4008 	strne	r4, [sp, #8]
            minX = allBodies[i].pxs[j] < minX ? allBodies[i].pxs[j] : minX;
    2ea0:	e1a00005 	mov	r0, r5
    2ea4:	e59d1010 	ldr	r1, [sp, #16]
    2ea8:	eb00186b 	bl	905c <__aeabi_fcmplt>
    2eac:	e3500000 	cmp	r0, #0
    2eb0:	158d5010 	strne	r5, [sp, #16]
            minY = allBodies[i].pys[j] < minY ? allBodies[i].pys[j] : minY;
    2eb4:	e1a00004 	mov	r0, r4
    2eb8:	e1a01009 	mov	r1, r9
    2ebc:	eb001866 	bl	905c <__aeabi_fcmplt>
    2ec0:	e3500000 	cmp	r0, #0
    2ec4:	11a09004 	movne	r9, r4

            float dx = allBodies[i].pxs[j] - allBodies[i].cx;
    2ec8:	e1a00005 	mov	r0, r5
    2ecc:	e51b12b4 	ldr	r1, [r11, #-692]	; 0xfffffd4c
    2ed0:	eb0016cd 	bl	8a0c <__aeabi_fsub>
    2ed4:	e1a0a000 	mov	r10, r0
            float dy = allBodies[i].pys[j] - allBodies[i].cy;
    2ed8:	e1a00004 	mov	r0, r4
    2edc:	e51b12b0 	ldr	r1, [r11, #-688]	; 0xfffffd50
    2ee0:	eb0016c9 	bl	8a0c <__aeabi_fsub>
    2ee4:	e1a04000 	mov	r4, r0

            allBodies[i].vDistances[j] = sqrt(dx*dx+dy*dy);
    2ee8:	e1a0000a 	mov	r0, r10
    2eec:	e1a0100a 	mov	r1, r10
    2ef0:	eb00176e 	bl	8cb0 <__aeabi_fmul>
    2ef4:	e1a05000 	mov	r5, r0
    2ef8:	e1a00004 	mov	r0, r4
    2efc:	e1a01004 	mov	r1, r4
    2f00:	eb00176a 	bl	8cb0 <__aeabi_fmul>
    2f04:	e1a01000 	mov	r1, r0
    2f08:	e1a00005 	mov	r0, r5
    2f0c:	eb0016bf 	bl	8a10 <__addsf3>
    2f10:	eb0014d7 	bl	8274 <__aeabi_f2d>
    2f14:	eb00061d 	bl	4790 <sqrt>
    2f18:	eb001691 	bl	8964 <__aeabi_d2f>
    2f1c:	e5860040 	str	r0, [r6, #64]	; 0x40
            allBodies[i].constThetas[j] = atan2(dy, dx);
    2f20:	e1a00004 	mov	r0, r4
    2f24:	eb0014d2 	bl	8274 <__aeabi_f2d>
    2f28:	e1a04000 	mov	r4, r0
    2f2c:	e1a05001 	mov	r5, r1
    2f30:	e1a0000a 	mov	r0, r10
    2f34:	eb0014ce 	bl	8274 <__aeabi_f2d>
    2f38:	e1a02000 	mov	r2, r0
    2f3c:	e1a03001 	mov	r3, r1
    2f40:	e1a00004 	mov	r0, r4
    2f44:	e1a01005 	mov	r1, r5
    2f48:	eb0004cc 	bl	4280 <atan2>
    2f4c:	eb001684 	bl	8964 <__aeabi_d2f>
    2f50:	e5860084 	str	r0, [r6, #132]	; 0x84
        float maxX = -1;
        float maxY = -1;
        float minX = M_PER_PX_RB * MAX_X;
        float minY = M_PER_PX_RB * MAX_Y;

        for (int j = 0; j < VERTICIES_PER_BODY; j++) {
    2f54:	e2888001 	add	r8, r8, #1
    2f58:	e2866004 	add	r6, r6, #4
    2f5c:	e3580004 	cmp	r8, #4
    2f60:	1affffc2 	bne	2e70 <initRigidBodies+0x334>
    2f64:	e59da008 	ldr	r10, [sp, #8]
            allBodies[i].vDistances[j] = sqrt(dx*dx+dy*dy);
            allBodies[i].constThetas[j] = atan2(dy, dx);

        }

        allBodies[i].maxPX = maxX * PX_PER_M_RB;
    2f68:	e59d0004 	ldr	r0, [sp, #4]
    2f6c:	eb001852 	bl	90bc <__aeabi_f2iz>
    2f70:	e50b02bc 	str	r0, [r11, #-700]	; 0xfffffd44
        allBodies[i].maxPY = maxY * PX_PER_M_RB;
    2f74:	e1a0000a 	mov	r0, r10
    2f78:	eb00184f 	bl	90bc <__aeabi_f2iz>
    2f7c:	e50b02b8 	str	r0, [r11, #-696]	; 0xfffffd48
        allBodies[i].minPX = minX * PX_PER_M_RB;
    2f80:	e59d0010 	ldr	r0, [sp, #16]
    2f84:	eb00184c 	bl	90bc <__aeabi_f2iz>
    2f88:	e50b02c4 	str	r0, [r11, #-708]	; 0xfffffd3c
        allBodies[i].minPY = minY * PX_PER_M_RB;
    2f8c:	e1a00009 	mov	r0, r9
    2f90:	eb001849 	bl	90bc <__aeabi_f2iz>
    2f94:	e50b02c0 	str	r0, [r11, #-704]	; 0xfffffd40

        allBodies[i].mass = BODY_DENSITY * abs(runningAreaCount);
    2f98:	e59d0018 	ldr	r0, [sp, #24]
    2f9c:	eb001846 	bl	90bc <__aeabi_f2iz>
    2fa0:	e3500000 	cmp	r0, #0
    2fa4:	b2600000 	rsblt	r0, r0, #0
    2fa8:	e1a00080 	lsl	r0, r0, #1
    2fac:	eb001708 	bl	8bd4 <__aeabi_i2f>
    2fb0:	e1a06000 	mov	r6, r0
    2fb4:	e50b02a8 	str	r0, [r11, #-680]	; 0xfffffd58
        allBodies[i].I = allBodies[i].mass * (pow(maxX-minX, 2) + pow(maxY-minY, 2)) / 12.0;
    2fb8:	e59d0004 	ldr	r0, [sp, #4]
    2fbc:	e59d1010 	ldr	r1, [sp, #16]
    2fc0:	eb001691 	bl	8a0c <__aeabi_fsub>
    2fc4:	eb0014aa 	bl	8274 <__aeabi_f2d>
    2fc8:	e1a04000 	mov	r4, r0
    2fcc:	e1a05001 	mov	r5, r1
    2fd0:	e1a0000a 	mov	r0, r10
    2fd4:	e1a01009 	mov	r1, r9
    2fd8:	eb00168b 	bl	8a0c <__aeabi_fsub>
    2fdc:	eb0014a4 	bl	8274 <__aeabi_f2d>
    2fe0:	e1a08000 	mov	r8, r0
    2fe4:	e1a09001 	mov	r9, r1
    2fe8:	e1a00006 	mov	r0, r6
    2fec:	eb0014a0 	bl	8274 <__aeabi_f2d>
    2ff0:	e1a06000 	mov	r6, r0
    2ff4:	e1a07001 	mov	r7, r1
    2ff8:	e1a00004 	mov	r0, r4
    2ffc:	e1a01005 	mov	r1, r5
    3000:	e1a02004 	mov	r2, r4
    3004:	e1a03005 	mov	r3, r5
    3008:	eb0014c6 	bl	8328 <__aeabi_dmul>
    300c:	e1a04000 	mov	r4, r0
    3010:	e1a05001 	mov	r5, r1
    3014:	e1a00008 	mov	r0, r8
    3018:	e1a01009 	mov	r1, r9
    301c:	e1a02008 	mov	r2, r8
    3020:	e1a03009 	mov	r3, r9
    3024:	eb0014bf 	bl	8328 <__aeabi_dmul>
    3028:	e1a02000 	mov	r2, r0
    302c:	e1a03001 	mov	r3, r1
    3030:	e1a00004 	mov	r0, r4
    3034:	e1a01005 	mov	r1, r5
    3038:	eb0013b6 	bl	7f18 <__adddf3>
    303c:	e1a02000 	mov	r2, r0
    3040:	e1a03001 	mov	r3, r1
    3044:	e1a00006 	mov	r0, r6
    3048:	e1a01007 	mov	r1, r7
    304c:	eb0014b5 	bl	8328 <__aeabi_dmul>
    3050:	e3a02000 	mov	r2, #0
    3054:	e3a03000 	mov	r3, #0
    3058:	e3443028 	movt	r3, #16424	; 0x4028
    305c:	eb001555 	bl	85b8 <__aeabi_ddiv>
    3060:	eb00163f 	bl	8964 <__aeabi_d2f>
    3064:	e50b02ac 	str	r0, [r11, #-684]	; 0xfffffd54

        xStepCount++;
    3068:	e59d3024 	ldr	r3, [sp, #36]	; 0x24
    306c:	e2833001 	add	r3, r3, #1
    3070:	e58d3024 	str	r3, [sp, #36]	; 0x24
    int initY = stepY/2;

    int xStepCount = 0;
    int yStepCount = 0;

    for (int i = 0; i < NUM_BODIES; i++) {
    3074:	e59d1014 	ldr	r1, [sp, #20]
    3078:	e2811001 	add	r1, r1, #1
    307c:	e58d1014 	str	r1, [sp, #20]
    3080:	e3510008 	cmp	r1, #8
    3084:	1afffec1 	bne	2b90 <initRigidBodies+0x54>

        xStepCount++;

    }

}
    3088:	e28dd044 	add	sp, sp, #68	; 0x44
    308c:	e8bd8ff0 	pop	{r4, r5, r6, r7, r8, r9, r10, r11, pc}

00003090 <eraseBodies>:

void eraseBodies() {
    3090:	e92d47f0 	push	{r4, r5, r6, r7, r8, r9, r10, lr}
    3094:	e24dd008 	sub	sp, sp, #8
    3098:	e59f6070 	ldr	r6, [pc, #112]	; 3110 <eraseBodies+0x80>

    for (int i = 0; i<NUM_BODIES; i++) {
    309c:	e3a08000 	mov	r8, #0

    }

}

void eraseBodies() {
    30a0:	e246900c 	sub	r9, r6, #12
    30a4:	e3a0a003 	mov	r10, #3

    for (int i = 0; i<NUM_BODIES; i++) {
        for (int j = 1; j<VERTICIES_PER_BODY; j++) {
            drawBresenhamLine(eraseRBs[i].xs[j-1], eraseRBs[i].ys[j-1], eraseRBs[i].xs[j], eraseRBs[i].ys[j], BLACK);
    30a8:	e1a07008 	mov	r7, r8
    30ac:	ea000012 	b	30fc <eraseBodies+0x6c>
    30b0:	e5940000 	ldr	r0, [r4]
    30b4:	e5941010 	ldr	r1, [r4, #16]
    30b8:	e5942004 	ldr	r2, [r4, #4]
    30bc:	e5943014 	ldr	r3, [r4, #20]
    30c0:	e58d7000 	str	r7, [sp]
    30c4:	ebfff4fe 	bl	4c4 <drawBresenhamLine>
    30c8:	e2844004 	add	r4, r4, #4
}

void eraseBodies() {

    for (int i = 0; i<NUM_BODIES; i++) {
        for (int j = 1; j<VERTICIES_PER_BODY; j++) {
    30cc:	e2555001 	subs	r5, r5, #1
    30d0:	1afffff6 	bne	30b0 <eraseBodies+0x20>
            drawBresenhamLine(eraseRBs[i].xs[j-1], eraseRBs[i].ys[j-1], eraseRBs[i].xs[j], eraseRBs[i].ys[j], BLACK);
        }
        drawBresenhamLine(eraseRBs[i].xs[VERTICIES_PER_BODY-1], eraseRBs[i].ys[VERTICIES_PER_BODY-1], eraseRBs[i].xs[0], eraseRBs[i].ys[0], BLACK);
    30d4:	e5960000 	ldr	r0, [r6]
    30d8:	e5961010 	ldr	r1, [r6, #16]
    30dc:	e516200c 	ldr	r2, [r6, #-12]
    30e0:	e5963004 	ldr	r3, [r6, #4]
    30e4:	e58d7000 	str	r7, [sp]
    30e8:	ebfff4f5 	bl	4c4 <drawBresenhamLine>

}

void eraseBodies() {

    for (int i = 0; i<NUM_BODIES; i++) {
    30ec:	e2888001 	add	r8, r8, #1
    30f0:	e2866020 	add	r6, r6, #32
    30f4:	e3580008 	cmp	r8, #8
    30f8:	0a000002 	beq	3108 <eraseBodies+0x78>

    }

}

void eraseBodies() {
    30fc:	e0894288 	add	r4, r9, r8, lsl #5
    3100:	e1a0500a 	mov	r5, r10
    3104:	eaffffe9 	b	30b0 <eraseBodies+0x20>
            drawBresenhamLine(eraseRBs[i].xs[j-1], eraseRBs[i].ys[j-1], eraseRBs[i].xs[j], eraseRBs[i].ys[j], BLACK);
        }
        drawBresenhamLine(eraseRBs[i].xs[VERTICIES_PER_BODY-1], eraseRBs[i].ys[VERTICIES_PER_BODY-1], eraseRBs[i].xs[0], eraseRBs[i].ys[0], BLACK);
    }   

}
    3108:	e28dd008 	add	sp, sp, #8
    310c:	e8bd87f0 	pop	{r4, r5, r6, r7, r8, r9, r10, pc}
    3110:	0010e8b0 	.word	0x0010e8b0

00003114 <drawBodies>:

void drawBodies() {
    3114:	e92d4ff0 	push	{r4, r5, r6, r7, r8, r9, r10, r11, lr}
    3118:	e24dd00c 	sub	sp, sp, #12
    311c:	e59f607c 	ldr	r6, [pc, #124]	; 31a0 <drawBodies+0x8c>

    for (int i = 0; i<NUM_BODIES; i++) {
    3120:	e3a08000 	mov	r8, #0
        drawBresenhamLine(eraseRBs[i].xs[VERTICIES_PER_BODY-1], eraseRBs[i].ys[VERTICIES_PER_BODY-1], eraseRBs[i].xs[0], eraseRBs[i].ys[0], BLACK);
    }   

}

void drawBodies() {
    3124:	e246be19 	sub	r11, r6, #400	; 0x190
    3128:	e3a09f65 	mov	r9, #404	; 0x194
    312c:	e3a0a003 	mov	r10, #3
    3130:	ea000015 	b	318c <drawBodies+0x78>
    3134:	e1a07006 	mov	r7, r6

    for (int i = 0; i<NUM_BODIES; i++) {
        for (int j = 1; j<VERTICIES_PER_BODY; j++) {
            drawBresenhamLine(allBodies[i].xs[j-1], allBodies[i].ys[j-1], allBodies[i].xs[j], allBodies[i].ys[j], allBodies[i].colour);
    3138:	e5940000 	ldr	r0, [r4]
    313c:	e5941010 	ldr	r1, [r4, #16]
    3140:	e5942004 	ldr	r2, [r4, #4]
    3144:	e5943014 	ldr	r3, [r4, #20]
    3148:	e1d6c0f0 	ldrsh	r12, [r6]
    314c:	e58dc000 	str	r12, [sp]
    3150:	ebfff4db 	bl	4c4 <drawBresenhamLine>
    3154:	e2844004 	add	r4, r4, #4
}

void drawBodies() {

    for (int i = 0; i<NUM_BODIES; i++) {
        for (int j = 1; j<VERTICIES_PER_BODY; j++) {
    3158:	e2555001 	subs	r5, r5, #1
    315c:	1afffff4 	bne	3134 <drawBodies+0x20>
            drawBresenhamLine(allBodies[i].xs[j-1], allBodies[i].ys[j-1], allBodies[i].xs[j], allBodies[i].ys[j], allBodies[i].colour);
        }
        drawBresenhamLine(allBodies[i].xs[VERTICIES_PER_BODY-1], allBodies[i].ys[VERTICIES_PER_BODY-1], allBodies[i].xs[0], allBodies[i].ys[0], allBodies[i].colour);
    3160:	e5160184 	ldr	r0, [r6, #-388]	; 0xfffffe7c
    3164:	e5161174 	ldr	r1, [r6, #-372]	; 0xfffffe8c
    3168:	e5162190 	ldr	r2, [r6, #-400]	; 0xfffffe70
    316c:	e5163180 	ldr	r3, [r6, #-384]	; 0xfffffe80
    3170:	e1d6c0f0 	ldrsh	r12, [r6]
    3174:	e58dc000 	str	r12, [sp]
    3178:	ebfff4d1 	bl	4c4 <drawBresenhamLine>

}

void drawBodies() {

    for (int i = 0; i<NUM_BODIES; i++) {
    317c:	e2888001 	add	r8, r8, #1
    3180:	e2866f65 	add	r6, r6, #404	; 0x194
    3184:	e3580008 	cmp	r8, #8
    3188:	0a000002 	beq	3198 <drawBodies+0x84>
        drawBresenhamLine(eraseRBs[i].xs[VERTICIES_PER_BODY-1], eraseRBs[i].ys[VERTICIES_PER_BODY-1], eraseRBs[i].xs[0], eraseRBs[i].ys[0], BLACK);
    }   

}

void drawBodies() {
    318c:	e024b899 	mla	r4, r9, r8, r11
    3190:	e1a0500a 	mov	r5, r10
    3194:	eaffffe6 	b	3134 <drawBodies+0x20>
            drawBresenhamLine(allBodies[i].xs[j-1], allBodies[i].ys[j-1], allBodies[i].xs[j], allBodies[i].ys[j], allBodies[i].colour);
        }
        drawBresenhamLine(allBodies[i].xs[VERTICIES_PER_BODY-1], allBodies[i].ys[VERTICIES_PER_BODY-1], allBodies[i].xs[0], allBodies[i].ys[0], allBodies[i].colour);
    }   

}
    3198:	e28dd00c 	add	sp, sp, #12
    319c:	e8bd8ff0 	pop	{r4, r5, r6, r7, r8, r9, r10, r11, pc}
    31a0:	0010dd94 	.word	0x0010dd94

000031a4 <updateRBMinsAndMaxes>:

void updateRBMinsAndMaxes(int i){
    31a4:	e92d0070 	push	{r4, r5, r6}
    31a8:	e3a02f65 	mov	r2, #404	; 0x194
    31ac:	e59f3070 	ldr	r3, [pc, #112]	; 3224 <updateRBMinsAndMaxes+0x80>
    31b0:	e0223092 	mla	r2, r2, r0, r3
    31b4:	e2422004 	sub	r2, r2, #4
    31b8:	e3a03004 	mov	r3, #4

    int cMaxX = INT_MIN_C;
    int cMaxY = INT_MIN_C;
    int cMinX = INT_MAX_C;
    int cMinY = INT_MAX_C;
    31bc:	e3e0c102 	mvn	r12, #-2147483648	; 0x80000000

void updateRBMinsAndMaxes(int i){

    int cMaxX = INT_MIN_C;
    int cMaxY = INT_MIN_C;
    int cMinX = INT_MAX_C;
    31c0:	e1a0500c 	mov	r5, r12
}

void updateRBMinsAndMaxes(int i){

    int cMaxX = INT_MIN_C;
    int cMaxY = INT_MIN_C;
    31c4:	e3a04102 	mov	r4, #-2147483648	; 0x80000000

}

void updateRBMinsAndMaxes(int i){

    int cMaxX = INT_MIN_C;
    31c8:	e1a06004 	mov	r6, r4
    int cMaxY = INT_MIN_C;
    int cMinX = INT_MAX_C;
    int cMinY = INT_MAX_C;
    for (int vertIdx = 0; vertIdx < VERTICIES_PER_BODY; vertIdx++) {
        if (allBodies[i].xs[vertIdx] > cMaxX) cMaxX = allBodies[i].xs[vertIdx];
    31cc:	e5b21004 	ldr	r1, [r2, #4]!
    31d0:	e1560001 	cmp	r6, r1
    31d4:	b1a06001 	movlt	r6, r1
    31d8:	e1550001 	cmp	r5, r1
    31dc:	a1a05001 	movge	r5, r1
        if (allBodies[i].xs[vertIdx] < cMinX) cMinX = allBodies[i].xs[vertIdx];
        if (allBodies[i].ys[vertIdx] > cMaxY) cMaxY = allBodies[i].ys[vertIdx];
    31e0:	e5921010 	ldr	r1, [r2, #16]
    31e4:	e1540001 	cmp	r4, r1
    31e8:	b1a04001 	movlt	r4, r1
    31ec:	e15c0001 	cmp	r12, r1
    31f0:	a1a0c001 	movge	r12, r1

    int cMaxX = INT_MIN_C;
    int cMaxY = INT_MIN_C;
    int cMinX = INT_MAX_C;
    int cMinY = INT_MAX_C;
    for (int vertIdx = 0; vertIdx < VERTICIES_PER_BODY; vertIdx++) {
    31f4:	e2533001 	subs	r3, r3, #1
    31f8:	1afffff3 	bne	31cc <updateRBMinsAndMaxes+0x28>
        if (allBodies[i].xs[vertIdx] > cMaxX) cMaxX = allBodies[i].xs[vertIdx];
        if (allBodies[i].xs[vertIdx] < cMinX) cMinX = allBodies[i].xs[vertIdx];
        if (allBodies[i].ys[vertIdx] > cMaxY) cMaxY = allBodies[i].ys[vertIdx];
        if (allBodies[i].ys[vertIdx] < cMinY) cMinY = allBodies[i].ys[vertIdx];
    }
    allBodies[i].maxPX = cMaxX;
    31fc:	e30d3a3c 	movw	r3, #55868	; 0xda3c
    3200:	e3403010 	movt	r3, #16
    3204:	e3a02f65 	mov	r2, #404	; 0x194
    3208:	e0203092 	mla	r0, r2, r0, r3
    320c:	e5806230 	str	r6, [r0, #560]	; 0x230
    allBodies[i].minPX = cMinX;
    3210:	e5805228 	str	r5, [r0, #552]	; 0x228
    allBodies[i].maxPY = cMaxY;
    3214:	e5804234 	str	r4, [r0, #564]	; 0x234
    allBodies[i].minPY = cMinY;
    3218:	e580c22c 	str	r12, [r0, #556]	; 0x22c
    //     printf("minX:%d\n", cMinX);
    //     printf("maxY:%d\n", cMaxY);
    //     printf("minY:%d\n", cMinY);
    // }

}
    321c:	e8bd0070 	pop	{r4, r5, r6}
    3220:	e12fff1e 	bx	lr
    3224:	0010dc04 	.word	0x0010dc04

00003228 <stepBodyPositions>:

void stepBodyPositions(int i) {
    3228:	e92d4ff0 	push	{r4, r5, r6, r7, r8, r9, r10, r11, lr}
    322c:	e24dd024 	sub	sp, sp, #36	; 0x24
    3230:	e58d0014 	str	r0, [sp, #20]

    // Must also update positions of all verticies

    float pt = allBodies[i].theta;

    if (i!=currentMouseInteractionObj){
    3234:	e30d3a3c 	movw	r3, #55868	; 0xda3c
    3238:	e3403010 	movt	r3, #16
    323c:	e5933184 	ldr	r3, [r3, #388]	; 0x184
    3240:	e1500003 	cmp	r0, r3
    3244:	0a00003a 	beq	3334 <stepBodyPositions+0x10c>
        allBodies[i].theta += allBodies[i].omega * SPH_RB;
    3248:	e30d3a3c 	movw	r3, #55868	; 0xda3c
    324c:	e3403010 	movt	r3, #16
    3250:	e3a06f65 	mov	r6, #404	; 0x194
    3254:	e0263096 	mla	r6, r6, r0, r3
    3258:	e5960248 	ldr	r0, [r6, #584]	; 0x248
    325c:	eb001404 	bl	8274 <__aeabi_f2d>
    3260:	e1a04000 	mov	r4, r0
    3264:	e1a05001 	mov	r5, r1
    3268:	e596025c 	ldr	r0, [r6, #604]	; 0x25c
    326c:	eb001400 	bl	8274 <__aeabi_f2d>
    3270:	e309299a 	movw	r2, #39322	; 0x999a
    3274:	e3492999 	movt	r2, #39321	; 0x9999
    3278:	e3093999 	movw	r3, #39321	; 0x9999
    327c:	e3433fc9 	movt	r3, #16329	; 0x3fc9
    3280:	eb001428 	bl	8328 <__aeabi_dmul>
    3284:	e1a02000 	mov	r2, r0
    3288:	e1a03001 	mov	r3, r1
    328c:	e1a00004 	mov	r0, r4
    3290:	e1a01005 	mov	r1, r5
    3294:	eb00131f 	bl	7f18 <__adddf3>
    3298:	eb0015b1 	bl	8964 <__aeabi_d2f>
    329c:	e5860248 	str	r0, [r6, #584]	; 0x248
        allBodies[i].cx += allBodies[i].v.x * SPH_RB;
    32a0:	e5960238 	ldr	r0, [r6, #568]	; 0x238
    32a4:	eb0013f2 	bl	8274 <__aeabi_f2d>
    32a8:	e1a04000 	mov	r4, r0
    32ac:	e1a05001 	mov	r5, r1
    32b0:	e5960218 	ldr	r0, [r6, #536]	; 0x218
    32b4:	eb0013ee 	bl	8274 <__aeabi_f2d>
    32b8:	e309299a 	movw	r2, #39322	; 0x999a
    32bc:	e3492999 	movt	r2, #39321	; 0x9999
    32c0:	e3093999 	movw	r3, #39321	; 0x9999
    32c4:	e3433fc9 	movt	r3, #16329	; 0x3fc9
    32c8:	eb001416 	bl	8328 <__aeabi_dmul>
    32cc:	e1a02000 	mov	r2, r0
    32d0:	e1a03001 	mov	r3, r1
    32d4:	e1a00004 	mov	r0, r4
    32d8:	e1a01005 	mov	r1, r5
    32dc:	eb00130d 	bl	7f18 <__adddf3>
    32e0:	eb00159f 	bl	8964 <__aeabi_d2f>
    32e4:	e5860238 	str	r0, [r6, #568]	; 0x238
        allBodies[i].cy += allBodies[i].v.y * SPH_RB;
    32e8:	e596023c 	ldr	r0, [r6, #572]	; 0x23c
    32ec:	eb0013e0 	bl	8274 <__aeabi_f2d>
    32f0:	e1a04000 	mov	r4, r0
    32f4:	e1a05001 	mov	r5, r1
    32f8:	e596021c 	ldr	r0, [r6, #540]	; 0x21c
    32fc:	eb0013dc 	bl	8274 <__aeabi_f2d>
    3300:	e309299a 	movw	r2, #39322	; 0x999a
    3304:	e3492999 	movt	r2, #39321	; 0x9999
    3308:	e3093999 	movw	r3, #39321	; 0x9999
    330c:	e3433fc9 	movt	r3, #16329	; 0x3fc9
    3310:	eb001404 	bl	8328 <__aeabi_dmul>
    3314:	e1a02000 	mov	r2, r0
    3318:	e1a03001 	mov	r3, r1
    331c:	e1a00004 	mov	r0, r4
    3320:	e1a01005 	mov	r1, r5
    3324:	eb0012fb 	bl	7f18 <__adddf3>
    3328:	eb00158d 	bl	8964 <__aeabi_d2f>
    332c:	e586023c 	str	r0, [r6, #572]	; 0x23c
    3330:	ea0000d7 	b	3694 <stepBodyPositions+0x46c>
    } else {
        allBodies[i].cx = mData.x;
    3334:	e30d3a3c 	movw	r3, #55868	; 0xda3c
    3338:	e3403010 	movt	r3, #16
    333c:	e3a04f65 	mov	r4, #404	; 0x194
    3340:	e59d0014 	ldr	r0, [sp, #20]
    3344:	e0243094 	mla	r4, r4, r0, r3
    3348:	e3095e4c 	movw	r5, #40524	; 0x9e4c
    334c:	e3405000 	movt	r5, #0
    3350:	e5950004 	ldr	r0, [r5, #4]
    3354:	eb00161e 	bl	8bd4 <__aeabi_i2f>
    3358:	e5840238 	str	r0, [r4, #568]	; 0x238
        allBodies[i].cy = mData.y;
    335c:	e5950008 	ldr	r0, [r5, #8]
    3360:	eb00161b 	bl	8bd4 <__aeabi_i2f>
    3364:	e584023c 	str	r0, [r4, #572]	; 0x23c
        allBodies[i].omega = 0;
    3368:	e3a03000 	mov	r3, #0
    336c:	e584325c 	str	r3, [r4, #604]	; 0x25c
        allBodies[i].v.x = 0.0;
    3370:	e5843218 	str	r3, [r4, #536]	; 0x218
        allBodies[i].v.y = 0.0;
    3374:	e584321c 	str	r3, [r4, #540]	; 0x21c
    3378:	ea0000c5 	b	3694 <stepBodyPositions+0x46c>
    //     printf("minY:%d\n", cMinY);
    // }

}

void stepBodyPositions(int i) {
    337c:	e1a0900b 	mov	r9, r11

    float ndx, ndy, nt;

    for (int j = 0; j < VERTICIES_PER_BODY; j++) {    

        eraseRBs[i].xs[j] = allBodies[i].xs[j];
    3380:	e59b3000 	ldr	r3, [r11]
    3384:	e5883000 	str	r3, [r8]
        eraseRBs[i].ys[j] = allBodies[i].ys[j];
    3388:	e59b3010 	ldr	r3, [r11, #16]
    338c:	e5883010 	str	r3, [r8, #16]

        nt = allBodies[i].constThetas[j] + allBodies[i].theta;
        ndx = allBodies[i].vDistances[j] * cos(nt);
    3390:	e59b0040 	ldr	r0, [r11, #64]	; 0x40
    3394:	eb0013b6 	bl	8274 <__aeabi_f2d>
    3398:	e1cd00f8 	strd	r0, [sp, #8]
    for (int j = 0; j < VERTICIES_PER_BODY; j++) {    

        eraseRBs[i].xs[j] = allBodies[i].xs[j];
        eraseRBs[i].ys[j] = allBodies[i].ys[j];

        nt = allBodies[i].constThetas[j] + allBodies[i].theta;
    339c:	e59b0084 	ldr	r0, [r11, #132]	; 0x84
    33a0:	e59a1248 	ldr	r1, [r10, #584]	; 0x248
    33a4:	eb001599 	bl	8a10 <__addsf3>
        ndx = allBodies[i].vDistances[j] * cos(nt);
    33a8:	eb0013b1 	bl	8274 <__aeabi_f2d>
    33ac:	e1a06000 	mov	r6, r0
    33b0:	e1a07001 	mov	r7, r1
    33b4:	eb0002b7 	bl	3e98 <cos>
    33b8:	e1a04000 	mov	r4, r0
    33bc:	e1a05001 	mov	r5, r1
        ndy = allBodies[i].vDistances[j] * sin(nt);
    33c0:	e1a00006 	mov	r0, r6
    33c4:	e1a01007 	mov	r1, r7
    33c8:	eb000356 	bl	4128 <sin>
    33cc:	e1a06000 	mov	r6, r0
    33d0:	e1a07001 	mov	r7, r1

        eraseRBs[i].xs[j] = allBodies[i].xs[j];
        eraseRBs[i].ys[j] = allBodies[i].ys[j];

        nt = allBodies[i].constThetas[j] + allBodies[i].theta;
        ndx = allBodies[i].vDistances[j] * cos(nt);
    33d4:	e1cd00d8 	ldrd	r0, [sp, #8]
    33d8:	e1a02004 	mov	r2, r4
    33dc:	e1a03005 	mov	r3, r5
    33e0:	eb0013d0 	bl	8328 <__aeabi_dmul>
    33e4:	eb00155e 	bl	8964 <__aeabi_d2f>
    33e8:	e1a01000 	mov	r1, r0
        ndy = allBodies[i].vDistances[j] * sin(nt);

        allBodies[i].pxs[j] = allBodies[i].cx + ndx;
    33ec:	e59a0238 	ldr	r0, [r10, #568]	; 0x238
    33f0:	eb001586 	bl	8a10 <__addsf3>
    33f4:	e1a04000 	mov	r4, r0
    33f8:	e58b0020 	str	r0, [r11, #32]
        eraseRBs[i].xs[j] = allBodies[i].xs[j];
        eraseRBs[i].ys[j] = allBodies[i].ys[j];

        nt = allBodies[i].constThetas[j] + allBodies[i].theta;
        ndx = allBodies[i].vDistances[j] * cos(nt);
        ndy = allBodies[i].vDistances[j] * sin(nt);
    33fc:	e1cd00d8 	ldrd	r0, [sp, #8]
    3400:	e1a02006 	mov	r2, r6
    3404:	e1a03007 	mov	r3, r7
    3408:	eb0013c6 	bl	8328 <__aeabi_dmul>
    340c:	eb001554 	bl	8964 <__aeabi_d2f>
    3410:	e1a01000 	mov	r1, r0

        allBodies[i].pxs[j] = allBodies[i].cx + ndx;
        allBodies[i].pys[j] = allBodies[i].cy + ndy;
    3414:	e59a023c 	ldr	r0, [r10, #572]	; 0x23c
    3418:	eb00157c 	bl	8a10 <__addsf3>
    341c:	e1a05000 	mov	r5, r0
    3420:	e58b0030 	str	r0, [r11, #48]	; 0x30

        allBodies[i].xs[j] = PX_PER_M_RB * allBodies[i].pxs[j];
    3424:	e1a00004 	mov	r0, r4
    3428:	eb001723 	bl	90bc <__aeabi_f2iz>
    342c:	e1a06000 	mov	r6, r0
    3430:	e58b0000 	str	r0, [r11]
        allBodies[i].ys[j] = PX_PER_M_RB * allBodies[i].pys[j];
    3434:	e1a00005 	mov	r0, r5
    3438:	eb00171f 	bl	90bc <__aeabi_f2iz>
    343c:	e58b0010 	str	r0, [r11, #16]
        
        // Logic for necessary aadjustment if any
        if (allBodies[i].xs[j] < 0 ){
    3440:	e3560000 	cmp	r6, #0
    3444:	aa000014 	bge	349c <stepBodyPositions+0x274>
            allBodies[i].cx += 0 - M_PER_PX_RB * allBodies[i].xs[j];
    3448:	e59a0238 	ldr	r0, [r10, #568]	; 0x238
    344c:	eb001388 	bl	8274 <__aeabi_f2d>
    3450:	e1a04000 	mov	r4, r0
    3454:	e1a05001 	mov	r5, r1
    3458:	e1a00006 	mov	r0, r6
    345c:	eb00137a 	bl	824c <__aeabi_i2d>
    3460:	e1a02000 	mov	r2, r0
    3464:	e1a03001 	mov	r3, r1
    3468:	e3a00000 	mov	r0, #0
    346c:	e3a01000 	mov	r1, #0
    3470:	eb0012a7 	bl	7f14 <__aeabi_dsub>
    3474:	e1a02000 	mov	r2, r0
    3478:	e1a03001 	mov	r3, r1
    347c:	e1a00004 	mov	r0, r4
    3480:	e1a01005 	mov	r1, r5
    3484:	eb0012a3 	bl	7f18 <__adddf3>
    3488:	eb001535 	bl	8964 <__aeabi_d2f>
    348c:	e58a0238 	str	r0, [r10, #568]	; 0x238
            mustAdjust = true;
    3490:	e3a01001 	mov	r1, #1
    3494:	e58d1018 	str	r1, [sp, #24]
    3498:	ea000012 	b	34e8 <stepBodyPositions+0x2c0>
        } else if (allBodies[i].xs[j] > (MAX_X-1)){
    349c:	e300213f 	movw	r2, #319	; 0x13f
    34a0:	e1560002 	cmp	r6, r2
    34a4:	da00000f 	ble	34e8 <stepBodyPositions+0x2c0>
            allBodies[i].cx -=  M_PER_PX_RB * (allBodies[i].xs[j] - MAX_X + 1);
    34a8:	e59a0238 	ldr	r0, [r10, #568]	; 0x238
    34ac:	eb001370 	bl	8274 <__aeabi_f2d>
    34b0:	e1a04000 	mov	r4, r0
    34b4:	e1a05001 	mov	r5, r1
    34b8:	e2460f4f 	sub	r0, r6, #316	; 0x13c
    34bc:	e2400003 	sub	r0, r0, #3
    34c0:	eb001361 	bl	824c <__aeabi_i2d>
    34c4:	e1a02000 	mov	r2, r0
    34c8:	e1a03001 	mov	r3, r1
    34cc:	e1a00004 	mov	r0, r4
    34d0:	e1a01005 	mov	r1, r5
    34d4:	eb00128e 	bl	7f14 <__aeabi_dsub>
    34d8:	eb001521 	bl	8964 <__aeabi_d2f>
    34dc:	e58a0238 	str	r0, [r10, #568]	; 0x238
            mustAdjust = true;
    34e0:	e3a03001 	mov	r3, #1
    34e4:	e58d3018 	str	r3, [sp, #24]
        }
        if (allBodies[i].ys[j] < 0 ){
    34e8:	e5996010 	ldr	r6, [r9, #16]
    34ec:	e3560000 	cmp	r6, #0
    34f0:	aa000014 	bge	3548 <stepBodyPositions+0x320>
            allBodies[i].cy += 0 - M_PER_PX_RB * allBodies[i].ys[j];
    34f4:	e59a023c 	ldr	r0, [r10, #572]	; 0x23c
    34f8:	eb00135d 	bl	8274 <__aeabi_f2d>
    34fc:	e1a04000 	mov	r4, r0
    3500:	e1a05001 	mov	r5, r1
    3504:	e1a00006 	mov	r0, r6
    3508:	eb00134f 	bl	824c <__aeabi_i2d>
    350c:	e1a02000 	mov	r2, r0
    3510:	e1a03001 	mov	r3, r1
    3514:	e3a00000 	mov	r0, #0
    3518:	e3a01000 	mov	r1, #0
    351c:	eb00127c 	bl	7f14 <__aeabi_dsub>
    3520:	e1a02000 	mov	r2, r0
    3524:	e1a03001 	mov	r3, r1
    3528:	e1a00004 	mov	r0, r4
    352c:	e1a01005 	mov	r1, r5
    3530:	eb001278 	bl	7f18 <__adddf3>
    3534:	eb00150a 	bl	8964 <__aeabi_d2f>
    3538:	e58a023c 	str	r0, [r10, #572]	; 0x23c
            mustAdjust = true;
    353c:	e3a00001 	mov	r0, #1
    3540:	e58d0018 	str	r0, [sp, #24]
    3544:	ea000010 	b	358c <stepBodyPositions+0x364>
        } else if (allBodies[i].ys[j] > (MAX_Y-1)){
    3548:	e35600ef 	cmp	r6, #239	; 0xef
    354c:	da00000e 	ble	358c <stepBodyPositions+0x364>
            allBodies[i].cy -= M_PER_PX_RB * (allBodies[i].ys[j] - MAX_Y + 1);
    3550:	e59a023c 	ldr	r0, [r10, #572]	; 0x23c
    3554:	eb001346 	bl	8274 <__aeabi_f2d>
    3558:	e1a04000 	mov	r4, r0
    355c:	e1a05001 	mov	r5, r1
    3560:	e24600ef 	sub	r0, r6, #239	; 0xef
    3564:	eb001338 	bl	824c <__aeabi_i2d>
    3568:	e1a02000 	mov	r2, r0
    356c:	e1a03001 	mov	r3, r1
    3570:	e1a00004 	mov	r0, r4
    3574:	e1a01005 	mov	r1, r5
    3578:	eb001265 	bl	7f14 <__aeabi_dsub>
    357c:	eb0014f8 	bl	8964 <__aeabi_d2f>
    3580:	e58a023c 	str	r0, [r10, #572]	; 0x23c
            mustAdjust = true;
    3584:	e3a01001 	mov	r1, #1
    3588:	e58d1018 	str	r1, [sp, #24]
    358c:	e28bb004 	add	r11, r11, #4
    3590:	e2888004 	add	r8, r8, #4
    // Revert last position application if any vert out of bounds.
    bool mustAdjust = false;

    float ndx, ndy, nt;

    for (int j = 0; j < VERTICIES_PER_BODY; j++) {    
    3594:	e59d2000 	ldr	r2, [sp]
    3598:	e2522001 	subs	r2, r2, #1
    359c:	e58d2000 	str	r2, [sp]
    35a0:	1affff75 	bne	337c <stepBodyPositions+0x154>
    35a4:	e59d901c 	ldr	r9, [sp, #28]
            allBodies[i].cy -= M_PER_PX_RB * (allBodies[i].ys[j] - MAX_Y + 1);
            mustAdjust = true;
        }

    }
    for(int k = 0; mustAdjust && (k < VERTICIES_PER_BODY); k++) {
    35a8:	e59d3018 	ldr	r3, [sp, #24]
    35ac:	e3530000 	cmp	r3, #0
    35b0:	0a000034 	beq	3688 <stepBodyPositions+0x460>
    35b4:	e3a0b004 	mov	r11, #4
        nt = allBodies[i].constThetas[k] + allBodies[i].theta;
    35b8:	e30d3a3c 	movw	r3, #55868	; 0xda3c
    35bc:	e3403010 	movt	r3, #16
    35c0:	e3a0af65 	mov	r10, #404	; 0x194
    35c4:	e59d0014 	ldr	r0, [sp, #20]
    35c8:	e02a309a 	mla	r10, r10, r0, r3
        ndx = allBodies[i].vDistances[k] * cos(nt);
    35cc:	e5990040 	ldr	r0, [r9, #64]	; 0x40
    35d0:	eb001327 	bl	8274 <__aeabi_f2d>
    35d4:	e1a04000 	mov	r4, r0
    35d8:	e1a05001 	mov	r5, r1
            mustAdjust = true;
        }

    }
    for(int k = 0; mustAdjust && (k < VERTICIES_PER_BODY); k++) {
        nt = allBodies[i].constThetas[k] + allBodies[i].theta;
    35dc:	e5990084 	ldr	r0, [r9, #132]	; 0x84
    35e0:	e59a1248 	ldr	r1, [r10, #584]	; 0x248
    35e4:	eb001509 	bl	8a10 <__addsf3>
        ndx = allBodies[i].vDistances[k] * cos(nt);
    35e8:	eb001321 	bl	8274 <__aeabi_f2d>
    35ec:	e1a06000 	mov	r6, r0
    35f0:	e1a07001 	mov	r7, r1
    35f4:	eb000227 	bl	3e98 <cos>
    35f8:	e1cd00f0 	strd	r0, [sp]
        ndy = allBodies[i].vDistances[k] * sin(nt);
    35fc:	e1a00006 	mov	r0, r6
    3600:	e1a01007 	mov	r1, r7
    3604:	eb0002c7 	bl	4128 <sin>
    3608:	e1a06000 	mov	r6, r0
    360c:	e1a07001 	mov	r7, r1
        }

    }
    for(int k = 0; mustAdjust && (k < VERTICIES_PER_BODY); k++) {
        nt = allBodies[i].constThetas[k] + allBodies[i].theta;
        ndx = allBodies[i].vDistances[k] * cos(nt);
    3610:	e1a00004 	mov	r0, r4
    3614:	e1a01005 	mov	r1, r5
    3618:	e1cd20d0 	ldrd	r2, [sp]
    361c:	eb001341 	bl	8328 <__aeabi_dmul>
    3620:	eb0014cf 	bl	8964 <__aeabi_d2f>
    3624:	e1a01000 	mov	r1, r0
        ndy = allBodies[i].vDistances[k] * sin(nt);

        allBodies[i].pxs[k] = allBodies[i].cx + ndx;
    3628:	e59a0238 	ldr	r0, [r10, #568]	; 0x238
    362c:	eb0014f7 	bl	8a10 <__addsf3>
    3630:	e1a08000 	mov	r8, r0
    3634:	e5890020 	str	r0, [r9, #32]

    }
    for(int k = 0; mustAdjust && (k < VERTICIES_PER_BODY); k++) {
        nt = allBodies[i].constThetas[k] + allBodies[i].theta;
        ndx = allBodies[i].vDistances[k] * cos(nt);
        ndy = allBodies[i].vDistances[k] * sin(nt);
    3638:	e1a00004 	mov	r0, r4
    363c:	e1a01005 	mov	r1, r5
    3640:	e1a02006 	mov	r2, r6
    3644:	e1a03007 	mov	r3, r7
    3648:	eb001336 	bl	8328 <__aeabi_dmul>
    364c:	eb0014c4 	bl	8964 <__aeabi_d2f>
    3650:	e1a01000 	mov	r1, r0

        allBodies[i].pxs[k] = allBodies[i].cx + ndx;
        allBodies[i].pys[k] = allBodies[i].cy + ndy;
    3654:	e59a023c 	ldr	r0, [r10, #572]	; 0x23c
    3658:	eb0014ec 	bl	8a10 <__addsf3>
    365c:	e1a04000 	mov	r4, r0
    3660:	e5890030 	str	r0, [r9, #48]	; 0x30

        allBodies[i].xs[k] = PX_PER_M_RB * allBodies[i].pxs[k];
    3664:	e1a00008 	mov	r0, r8
    3668:	eb001693 	bl	90bc <__aeabi_f2iz>
    366c:	e5890000 	str	r0, [r9]
        allBodies[i].ys[k] = PX_PER_M_RB * allBodies[i].pys[k];
    3670:	e1a00004 	mov	r0, r4
    3674:	eb001690 	bl	90bc <__aeabi_f2iz>
    3678:	e5890010 	str	r0, [r9, #16]
    367c:	e2899004 	add	r9, r9, #4
            allBodies[i].cy -= M_PER_PX_RB * (allBodies[i].ys[j] - MAX_Y + 1);
            mustAdjust = true;
        }

    }
    for(int k = 0; mustAdjust && (k < VERTICIES_PER_BODY); k++) {
    3680:	e25bb001 	subs	r11, r11, #1
    3684:	1affffd0 	bne	35cc <stepBodyPositions+0x3a4>
        allBodies[i].pys[k] = allBodies[i].cy + ndy;

        allBodies[i].xs[k] = PX_PER_M_RB * allBodies[i].pxs[k];
        allBodies[i].ys[k] = PX_PER_M_RB * allBodies[i].pys[k];
    }
    updateRBMinsAndMaxes(i);
    3688:	e59d0014 	ldr	r0, [sp, #20]
    368c:	ebfffec4 	bl	31a4 <updateRBMinsAndMaxes>
    3690:	ea000013 	b	36e4 <stepBodyPositions+0x4bc>
    //     printf("minY:%d\n", cMinY);
    // }

}

void stepBodyPositions(int i) {
    3694:	e30d3a3c 	movw	r3, #55868	; 0xda3c
    3698:	e3403010 	movt	r3, #16
    369c:	e2832f72 	add	r2, r3, #456	; 0x1c8
    36a0:	e3a01f65 	mov	r1, #404	; 0x194
    36a4:	e59d0014 	ldr	r0, [sp, #20]
    36a8:	e0292091 	mla	r9, r1, r0, r2
    36ac:	e2833ee6 	add	r3, r3, #3680	; 0xe60
    36b0:	e2833008 	add	r3, r3, #8
    36b4:	e0838280 	add	r8, r3, r0, lsl #5
    36b8:	e1a0b009 	mov	r11, r9
    36bc:	e3a01004 	mov	r1, #4
    36c0:	e58d1000 	str	r1, [sp]
    36c4:	e3a02000 	mov	r2, #0
    36c8:	e58d2018 	str	r2, [sp, #24]
    for (int j = 0; j < VERTICIES_PER_BODY; j++) {    

        eraseRBs[i].xs[j] = allBodies[i].xs[j];
        eraseRBs[i].ys[j] = allBodies[i].ys[j];

        nt = allBodies[i].constThetas[j] + allBodies[i].theta;
    36cc:	e30d3a3c 	movw	r3, #55868	; 0xda3c
    36d0:	e3403010 	movt	r3, #16
    36d4:	e3a02f65 	mov	r2, #404	; 0x194
    36d8:	e02a3092 	mla	r10, r2, r0, r3
    36dc:	e58d901c 	str	r9, [sp, #28]
    36e0:	eaffff25 	b	337c <stepBodyPositions+0x154>
        allBodies[i].xs[k] = PX_PER_M_RB * allBodies[i].pxs[k];
        allBodies[i].ys[k] = PX_PER_M_RB * allBodies[i].pys[k];
    }
    updateRBMinsAndMaxes(i);

}
    36e4:	e28dd024 	add	sp, sp, #36	; 0x24
    36e8:	e8bd8ff0 	pop	{r4, r5, r6, r7, r8, r9, r10, r11, pc}

000036ec <stepBodyVelocities>:

void stepBodyVelocities(int i) {
    36ec:	e92d40f8 	push	{r3, r4, r5, r6, r7, lr}

    allBodies[i].omega += allBodies[i].alpha * SPH_RB;
    36f0:	e30d3a3c 	movw	r3, #55868	; 0xda3c
    36f4:	e3403010 	movt	r3, #16
    36f8:	e3a06f65 	mov	r6, #404	; 0x194
    36fc:	e0263096 	mla	r6, r6, r0, r3
    3700:	e596025c 	ldr	r0, [r6, #604]	; 0x25c
    3704:	eb0012da 	bl	8274 <__aeabi_f2d>
    3708:	e1a04000 	mov	r4, r0
    370c:	e1a05001 	mov	r5, r1
    3710:	e5960260 	ldr	r0, [r6, #608]	; 0x260
    3714:	eb0012d6 	bl	8274 <__aeabi_f2d>
    3718:	e309299a 	movw	r2, #39322	; 0x999a
    371c:	e3492999 	movt	r2, #39321	; 0x9999
    3720:	e3093999 	movw	r3, #39321	; 0x9999
    3724:	e3433fc9 	movt	r3, #16329	; 0x3fc9
    3728:	eb0012fe 	bl	8328 <__aeabi_dmul>
    372c:	e1a02000 	mov	r2, r0
    3730:	e1a03001 	mov	r3, r1
    3734:	e1a00004 	mov	r0, r4
    3738:	e1a01005 	mov	r1, r5
    373c:	eb0011f5 	bl	7f18 <__adddf3>
    3740:	eb001487 	bl	8964 <__aeabi_d2f>
    3744:	e586025c 	str	r0, [r6, #604]	; 0x25c
    allBodies[i].v.x += allBodies[i].a.x * SPH_RB;
    3748:	e5960218 	ldr	r0, [r6, #536]	; 0x218
    374c:	eb0012c8 	bl	8274 <__aeabi_f2d>
    3750:	e1a04000 	mov	r4, r0
    3754:	e1a05001 	mov	r5, r1
    3758:	e5960220 	ldr	r0, [r6, #544]	; 0x220
    375c:	eb0012c4 	bl	8274 <__aeabi_f2d>
    3760:	e309299a 	movw	r2, #39322	; 0x999a
    3764:	e3492999 	movt	r2, #39321	; 0x9999
    3768:	e3093999 	movw	r3, #39321	; 0x9999
    376c:	e3433fc9 	movt	r3, #16329	; 0x3fc9
    3770:	eb0012ec 	bl	8328 <__aeabi_dmul>
    3774:	e1a02000 	mov	r2, r0
    3778:	e1a03001 	mov	r3, r1
    377c:	e1a00004 	mov	r0, r4
    3780:	e1a01005 	mov	r1, r5
    3784:	eb0011e3 	bl	7f18 <__adddf3>
    3788:	eb001475 	bl	8964 <__aeabi_d2f>
    378c:	e1a07000 	mov	r7, r0
    3790:	e5860218 	str	r0, [r6, #536]	; 0x218
    allBodies[i].v.y += allBodies[i].a.y * SPH_RB;
    3794:	e596021c 	ldr	r0, [r6, #540]	; 0x21c
    3798:	eb0012b5 	bl	8274 <__aeabi_f2d>
    379c:	e1a04000 	mov	r4, r0
    37a0:	e1a05001 	mov	r5, r1
    37a4:	e5960224 	ldr	r0, [r6, #548]	; 0x224
    37a8:	eb0012b1 	bl	8274 <__aeabi_f2d>
    37ac:	e309299a 	movw	r2, #39322	; 0x999a
    37b0:	e3492999 	movt	r2, #39321	; 0x9999
    37b4:	e3093999 	movw	r3, #39321	; 0x9999
    37b8:	e3433fc9 	movt	r3, #16329	; 0x3fc9
    37bc:	eb0012d9 	bl	8328 <__aeabi_dmul>
    37c0:	e1a02000 	mov	r2, r0
    37c4:	e1a03001 	mov	r3, r1
    37c8:	e1a00004 	mov	r0, r4
    37cc:	e1a01005 	mov	r1, r5
    37d0:	eb0011d0 	bl	7f18 <__adddf3>
    37d4:	eb001462 	bl	8964 <__aeabi_d2f>
    37d8:	e1a04000 	mov	r4, r0
    37dc:	e586021c 	str	r0, [r6, #540]	; 0x21c

    allBodies[i].colour = hueToRGB565(RB_HUE-sqrt(allBodies[i].v.x*allBodies[i].v.x + allBodies[i].v.y*allBodies[i].v.y)/VELOCITY_COLOUR_SENSITIVITY_RB);
    37e0:	e1a01007 	mov	r1, r7
    37e4:	e1a00007 	mov	r0, r7
    37e8:	eb001530 	bl	8cb0 <__aeabi_fmul>
    37ec:	e1a05000 	mov	r5, r0
    37f0:	e1a00004 	mov	r0, r4
    37f4:	e1a01004 	mov	r1, r4
    37f8:	eb00152c 	bl	8cb0 <__aeabi_fmul>
    37fc:	e1a01000 	mov	r1, r0
    3800:	e1a00005 	mov	r0, r5
    3804:	eb001481 	bl	8a10 <__addsf3>
    3808:	eb001299 	bl	8274 <__aeabi_f2d>
    380c:	eb0003df 	bl	4790 <sqrt>
    3810:	e3a02000 	mov	r2, #0
    3814:	e3a03000 	mov	r3, #0
    3818:	e3443059 	movt	r3, #16473	; 0x4059
    381c:	eb001365 	bl	85b8 <__aeabi_ddiv>
    3820:	e1a02000 	mov	r2, r0
    3824:	e1a03001 	mov	r3, r1
    3828:	e3060666 	movw	r0, #26214	; 0x6666
    382c:	e3460666 	movt	r0, #26214	; 0x6666
    3830:	e3061666 	movw	r1, #26214	; 0x6666
    3834:	e3431fd6 	movt	r1, #16342	; 0x3fd6
    3838:	eb0011b5 	bl	7f14 <__aeabi_dsub>
    383c:	eb001448 	bl	8964 <__aeabi_d2f>
    3840:	ebfff285 	bl	25c <hueToRGB565>
    3844:	e2866fd6 	add	r6, r6, #856	; 0x358
    3848:	e1c600b0 	strh	r0, [r6]
    384c:	e8bd80f8 	pop	{r3, r4, r5, r6, r7, pc}

00003850 <checkCollisions>:

}

void checkCollisions(int i) {
    3850:	e92d4ff0 	push	{r4, r5, r6, r7, r8, r9, r10, r11, lr}
    3854:	e24dd014 	sub	sp, sp, #20
    3858:	e1a04000 	mov	r4, r0

    int collisionCount = 0;
    int interCollisionCount = 0;

    checkSATInterBodyCollision(i);
    385c:	ebfffaa2 	bl	22ec <checkSATInterBodyCollision>

    allBodies[i].colour = hueToRGB565(RB_HUE-sqrt(allBodies[i].v.x*allBodies[i].v.x + allBodies[i].v.y*allBodies[i].v.y)/VELOCITY_COLOUR_SENSITIVITY_RB);

}

void checkCollisions(int i) {
    3860:	e3a02f65 	mov	r2, #404	; 0x194
    3864:	e59f323c 	ldr	r3, [pc, #572]	; 3aa8 <checkCollisions+0x258>
    3868:	e0223492 	mla	r2, r2, r4, r3
    386c:	e58d200c 	str	r2, [sp, #12]
    3870:	e58d2000 	str	r2, [sp]
    3874:	e1a08002 	mov	r8, r2
    int collisionCount = 0;
    int interCollisionCount = 0;

    checkSATInterBodyCollision(i);
    
    for (int j = 0; j < VERTICIES_PER_BODY; j++) {
    3878:	e3a06000 	mov	r6, #0

}

void checkCollisions(int i) {

    int collisionCount = 0;
    387c:	e58d6004 	str	r6, [sp, #4]

    checkSATInterBodyCollision(i);
    
    for (int j = 0; j < VERTICIES_PER_BODY; j++) {

        bool setActive = false;
    3880:	e1a07006 	mov	r7, r6

        // Container collision handling
        if(allBodies[i].xs[j] >= (MAX_X-1) || allBodies[i].xs[j] <= 0) {
            
            if((allBodies[i].v.x > 0) == (allBodies[i].xs[j] > 0)) {
    3884:	e30d3a3c 	movw	r3, #55868	; 0xda3c
    3888:	e3403010 	movt	r3, #16
    388c:	e3a05f65 	mov	r5, #404	; 0x194
    3890:	e0253495 	mla	r5, r5, r4, r3
    3894:	e3a04000 	mov	r4, #0

    allBodies[i].colour = hueToRGB565(RB_HUE-sqrt(allBodies[i].v.x*allBodies[i].v.x + allBodies[i].v.y*allBodies[i].v.y)/VELOCITY_COLOUR_SENSITIVITY_RB);

}

void checkCollisions(int i) {
    3898:	e58d8008 	str	r8, [sp, #8]
    for (int j = 0; j < VERTICIES_PER_BODY; j++) {

        bool setActive = false;

        // Container collision handling
        if(allBodies[i].xs[j] >= (MAX_X-1) || allBodies[i].xs[j] <= 0) {
    389c:	e598b000 	ldr	r11, [r8]
    38a0:	e24b3001 	sub	r3, r11, #1
    38a4:	e300213d 	movw	r2, #317	; 0x13d
    38a8:	e1530002 	cmp	r3, r2

    checkSATInterBodyCollision(i);
    
    for (int j = 0; j < VERTICIES_PER_BODY; j++) {

        bool setActive = false;
    38ac:	91a0a007 	movls	r10, r7

        // Container collision handling
        if(allBodies[i].xs[j] >= (MAX_X-1) || allBodies[i].xs[j] <= 0) {
    38b0:	9a000021 	bls	393c <checkCollisions+0xec>
            
            if((allBodies[i].v.x > 0) == (allBodies[i].xs[j] > 0)) {
    38b4:	e595a218 	ldr	r10, [r5, #536]	; 0x218
    38b8:	e35b0000 	cmp	r11, #0
    38bc:	d3a0b000 	movle	r11, #0
    38c0:	c3a0b001 	movgt	r11, #1
    38c4:	e3a09001 	mov	r9, #1
    38c8:	e1a0000a 	mov	r0, r10
    38cc:	e1a01004 	mov	r1, r4
    38d0:	eb0015f3 	bl	90a4 <__aeabi_fcmpgt>
    38d4:	e3500000 	cmp	r0, #0
    38d8:	01a09007 	moveq	r9, r7
    38dc:	e2299001 	eor	r9, r9, #1
    38e0:	e2099001 	and	r9, r9, #1
    38e4:	e159000b 	cmp	r9, r11
    38e8:	0a000008 	beq	3910 <checkCollisions+0xc0>
                allBodies[i].v.x = -allBodies[i].v.x * ELASTICITY_RB;
    38ec:	e28a0102 	add	r0, r10, #-2147483648	; 0x80000000
    38f0:	eb00125f 	bl	8274 <__aeabi_f2d>
    38f4:	e309299a 	movw	r2, #39322	; 0x999a
    38f8:	e3492999 	movt	r2, #39321	; 0x9999
    38fc:	e3093999 	movw	r3, #39321	; 0x9999
    3900:	e3433fd9 	movt	r3, #16345	; 0x3fd9
    3904:	eb001287 	bl	8328 <__aeabi_dmul>
    3908:	eb001415 	bl	8964 <__aeabi_d2f>
    390c:	e5850218 	str	r0, [r5, #536]	; 0x218
            }

            allBodies[i].extForces[j].force.x = -allBodies[i].mass * allBodies[i].a.x;
    3910:	e5950244 	ldr	r0, [r5, #580]	; 0x244
    3914:	e2800102 	add	r0, r0, #-2147483648	; 0x80000000
    3918:	e5951220 	ldr	r1, [r5, #544]	; 0x220
    391c:	eb0014e3 	bl	8cb0 <__aeabi_fmul>
    3920:	e59d3000 	ldr	r3, [sp]
    3924:	e58300a8 	str	r0, [r3, #168]	; 0xa8
            setActive = true;
            collisionCount++;
    3928:	e59d2004 	ldr	r2, [sp, #4]
    392c:	e2822001 	add	r2, r2, #1
    3930:	e58d2004 	str	r2, [sp, #4]
            if((allBodies[i].v.x > 0) == (allBodies[i].xs[j] > 0)) {
                allBodies[i].v.x = -allBodies[i].v.x * ELASTICITY_RB;
            }

            allBodies[i].extForces[j].force.x = -allBodies[i].mass * allBodies[i].a.x;
            setActive = true;
    3934:	e3a0a001 	mov	r10, #1
    3938:	eaffffff 	b	393c <checkCollisions+0xec>
            collisionCount++;

        }
        if(allBodies[i].ys[j] >= (MAX_Y-1) || allBodies[i].ys[j] <= 0) {
    393c:	e59d3008 	ldr	r3, [sp, #8]
    3940:	e593b010 	ldr	r11, [r3, #16]
    3944:	e24b3001 	sub	r3, r11, #1
    3948:	e35300ed 	cmp	r3, #237	; 0xed
    394c:	9a000023 	bls	39e0 <checkCollisions+0x190>

            if((allBodies[i].v.y > 0) == (allBodies[i].ys[j] >= (MAX_Y-1))) {
    3950:	e595a21c 	ldr	r10, [r5, #540]	; 0x21c
    3954:	e35b00ee 	cmp	r11, #238	; 0xee
    3958:	d3a0b000 	movle	r11, #0
    395c:	c3a0b001 	movgt	r11, #1
    3960:	e3a09001 	mov	r9, #1
    3964:	e1a0000a 	mov	r0, r10
    3968:	e1a01004 	mov	r1, r4
    396c:	eb0015cc 	bl	90a4 <__aeabi_fcmpgt>
    3970:	e3500000 	cmp	r0, #0
    3974:	01a09007 	moveq	r9, r7
    3978:	e2299001 	eor	r9, r9, #1
    397c:	e2099001 	and	r9, r9, #1
    3980:	e159000b 	cmp	r9, r11
    3984:	0a000008 	beq	39ac <checkCollisions+0x15c>
                allBodies[i].v.y = -allBodies[i].v.y * ELASTICITY_RB;
    3988:	e28a0102 	add	r0, r10, #-2147483648	; 0x80000000
    398c:	eb001238 	bl	8274 <__aeabi_f2d>
    3990:	e309299a 	movw	r2, #39322	; 0x999a
    3994:	e3492999 	movt	r2, #39321	; 0x9999
    3998:	e3093999 	movw	r3, #39321	; 0x9999
    399c:	e3433fd9 	movt	r3, #16345	; 0x3fd9
    39a0:	eb001260 	bl	8328 <__aeabi_dmul>
    39a4:	eb0013ee 	bl	8964 <__aeabi_d2f>
    39a8:	e585021c 	str	r0, [r5, #540]	; 0x21c
            }

            allBodies[i].extForces[j].force.y = -allBodies[i].mass * allBodies[i].a.y;
    39ac:	e5950244 	ldr	r0, [r5, #580]	; 0x244
    39b0:	e2800102 	add	r0, r0, #-2147483648	; 0x80000000
    39b4:	e5951224 	ldr	r1, [r5, #548]	; 0x224
    39b8:	eb0014bc 	bl	8cb0 <__aeabi_fmul>
    39bc:	e59d2000 	ldr	r2, [sp]
    39c0:	e58200ac 	str	r0, [r2, #172]	; 0xac
            setActive = true;
            collisionCount++;
    39c4:	e59d3004 	ldr	r3, [sp, #4]
    39c8:	e2833001 	add	r3, r3, #1
    39cc:	e58d3004 	str	r3, [sp, #4]

        }

        if (collisionCount > 1) {
    39d0:	e3530001 	cmp	r3, #1
            if((allBodies[i].v.y > 0) == (allBodies[i].ys[j] >= (MAX_Y-1))) {
                allBodies[i].v.y = -allBodies[i].v.y * ELASTICITY_RB;
            }

            allBodies[i].extForces[j].force.y = -allBodies[i].mass * allBodies[i].a.y;
            setActive = true;
    39d4:	d3a0a001 	movle	r10, #1
            collisionCount++;

        }

        if (collisionCount > 1) {
    39d8:	da000016 	ble	3a38 <checkCollisions+0x1e8>
    39dc:	ea000002 	b	39ec <checkCollisions+0x19c>
    39e0:	e59d2004 	ldr	r2, [sp, #4]
    39e4:	e3520001 	cmp	r2, #1
    39e8:	da000010 	ble	3a30 <checkCollisions+0x1e0>
            for(int k = 0; k <= j; k++){
    39ec:	e3560000 	cmp	r6, #0
    39f0:	ba000008 	blt	3a18 <checkCollisions+0x1c8>
    39f4:	e59d300c 	ldr	r3, [sp, #12]
    39f8:	e1a02007 	mov	r2, r7
                allBodies[i].extForces[k].force.x = 0;
    39fc:	e58340a8 	str	r4, [r3, #168]	; 0xa8
                allBodies[i].extForces[k].force.y = 0;
    3a00:	e58340ac 	str	r4, [r3, #172]	; 0xac
                allBodies[i].extForces[k].isActive = false;
    3a04:	e5c370b0 	strb	r7, [r3, #176]	; 0xb0
            collisionCount++;

        }

        if (collisionCount > 1) {
            for(int k = 0; k <= j; k++){
    3a08:	e2822001 	add	r2, r2, #1
    3a0c:	e2833014 	add	r3, r3, #20
    3a10:	e1520006 	cmp	r2, r6
    3a14:	dafffff8 	ble	39fc <checkCollisions+0x1ac>
                allBodies[i].extForces[k].force.x = 0;
                allBodies[i].extForces[k].force.y = 0;
                allBodies[i].extForces[k].isActive = false;
            }
            allBodies[i].alpha = 0;
    3a18:	e5854260 	str	r4, [r5, #608]	; 0x260
            allBodies[i].v.x = 0;
    3a1c:	e5854218 	str	r4, [r5, #536]	; 0x218
            allBodies[i].v.y = 0;
    3a20:	e585421c 	str	r4, [r5, #540]	; 0x21c
            allBodies[i].a.x = 0;
    3a24:	e5854220 	str	r4, [r5, #544]	; 0x220
            allBodies[i].a.y = 0;
    3a28:	e5854224 	str	r4, [r5, #548]	; 0x224
            continue;
    3a2c:	ea000014 	b	3a84 <checkCollisions+0x234>
        }
        
        if (setActive) {
    3a30:	e35a0000 	cmp	r10, #0
    3a34:	0a00000d 	beq	3a70 <checkCollisions+0x220>
            //if((allBodies[i].omega > 0) == (allBodies[i].alpha > 0)) allBodies[i].omega = -allBodies[i].omega * ELASTICITY_RB;
            allBodies[i].omega = 0;
    3a38:	e585425c 	str	r4, [r5, #604]	; 0x25c
            allBodies[i].extForces[j].r.x = allBodies[i].pxs[j] - allBodies[i].cx;
    3a3c:	e59d3008 	ldr	r3, [sp, #8]
    3a40:	e5930020 	ldr	r0, [r3, #32]
    3a44:	e5951238 	ldr	r1, [r5, #568]	; 0x238
    3a48:	eb0013ef 	bl	8a0c <__aeabi_fsub>
    3a4c:	e59d2000 	ldr	r2, [sp]
    3a50:	e58200a0 	str	r0, [r2, #160]	; 0xa0
            allBodies[i].extForces[j].r.y = allBodies[i].pys[j] - allBodies[i].cy;
    3a54:	e59d3008 	ldr	r3, [sp, #8]
    3a58:	e5930030 	ldr	r0, [r3, #48]	; 0x30
    3a5c:	e595123c 	ldr	r1, [r5, #572]	; 0x23c
    3a60:	eb0013e9 	bl	8a0c <__aeabi_fsub>
    3a64:	e59d2000 	ldr	r2, [sp]
    3a68:	e58200a4 	str	r0, [r2, #164]	; 0xa4
    3a6c:	ea000002 	b	3a7c <checkCollisions+0x22c>
        } else {
            allBodies[i].extForces[j].force.x = 0;
    3a70:	e59d3000 	ldr	r3, [sp]
    3a74:	e58340a8 	str	r4, [r3, #168]	; 0xa8
            allBodies[i].extForces[j].force.y = 0;
    3a78:	e58340ac 	str	r4, [r3, #172]	; 0xac
        }
        allBodies[i].extForces[j].isActive = setActive;
    3a7c:	e59d2000 	ldr	r2, [sp]
    3a80:	e5c2a0b0 	strb	r10, [r2, #176]	; 0xb0
    int collisionCount = 0;
    int interCollisionCount = 0;

    checkSATInterBodyCollision(i);
    
    for (int j = 0; j < VERTICIES_PER_BODY; j++) {
    3a84:	e2866001 	add	r6, r6, #1
    3a88:	e2888004 	add	r8, r8, #4
    3a8c:	e59d3000 	ldr	r3, [sp]
    3a90:	e2833014 	add	r3, r3, #20
    3a94:	e58d3000 	str	r3, [sp]
    3a98:	e3560004 	cmp	r6, #4
    3a9c:	1affff7d 	bne	3898 <checkCollisions+0x48>
        }
        allBodies[i].extForces[j].isActive = setActive;

    }

}
    3aa0:	e28dd014 	add	sp, sp, #20
    3aa4:	e8bd8ff0 	pop	{r4, r5, r6, r7, r8, r9, r10, r11, pc}
    3aa8:	0010dc04 	.word	0x0010dc04

00003aac <checkMouseLocation>:

void checkMouseLocation(int i) {

    if (!mData.left) {
    3aac:	e3093e4c 	movw	r3, #40524	; 0x9e4c
    3ab0:	e3403000 	movt	r3, #0
    3ab4:	e5d3300c 	ldrb	r3, [r3, #12]
    3ab8:	e3530000 	cmp	r3, #0
    3abc:	1a000004 	bne	3ad4 <checkMouseLocation+0x28>
        currentMouseInteractionObj = -1;
    3ac0:	e30d3a3c 	movw	r3, #55868	; 0xda3c
    3ac4:	e3403010 	movt	r3, #16
    3ac8:	e3e02000 	mvn	r2, #0
    3acc:	e5832184 	str	r2, [r3, #388]	; 0x184
        return;
    3ad0:	e12fff1e 	bx	lr
    }
    if((allBodies[i].minPX <= mData.x) && (mData.x <= allBodies[i].maxPX) && (allBodies[i].minPY <= mData.y) && (mData.y <= allBodies[i].maxPY)) {
    3ad4:	e3093e4c 	movw	r3, #40524	; 0x9e4c
    3ad8:	e3403000 	movt	r3, #0
    3adc:	e5932004 	ldr	r2, [r3, #4]
    3ae0:	e30d3a3c 	movw	r3, #55868	; 0xda3c
    3ae4:	e3403010 	movt	r3, #16
    3ae8:	e3a01f65 	mov	r1, #404	; 0x194
    3aec:	e0233091 	mla	r3, r1, r0, r3
    3af0:	e5933228 	ldr	r3, [r3, #552]	; 0x228
    3af4:	e1530002 	cmp	r3, r2
    3af8:	c12fff1e 	bxgt	lr
    3afc:	e30d3a3c 	movw	r3, #55868	; 0xda3c
    3b00:	e3403010 	movt	r3, #16
    3b04:	e0233091 	mla	r3, r1, r0, r3
    3b08:	e5933230 	ldr	r3, [r3, #560]	; 0x230
    3b0c:	e1520003 	cmp	r2, r3
    3b10:	c12fff1e 	bxgt	lr
    3b14:	e3093e4c 	movw	r3, #40524	; 0x9e4c
    3b18:	e3403000 	movt	r3, #0
    3b1c:	e5932008 	ldr	r2, [r3, #8]
    3b20:	e30d3a3c 	movw	r3, #55868	; 0xda3c
    3b24:	e3403010 	movt	r3, #16
    3b28:	e0233091 	mla	r3, r1, r0, r3
    3b2c:	e593322c 	ldr	r3, [r3, #556]	; 0x22c
    3b30:	e1530002 	cmp	r3, r2
    3b34:	c12fff1e 	bxgt	lr
    3b38:	e30d3a3c 	movw	r3, #55868	; 0xda3c
    3b3c:	e3403010 	movt	r3, #16
    3b40:	e0233091 	mla	r3, r1, r0, r3
    3b44:	e5933234 	ldr	r3, [r3, #564]	; 0x234
    3b48:	e1520003 	cmp	r2, r3
    3b4c:	c12fff1e 	bxgt	lr
        if(currentMouseInteractionObj == -1) currentMouseInteractionObj = i;   
    3b50:	e30d3a3c 	movw	r3, #55868	; 0xda3c
    3b54:	e3403010 	movt	r3, #16
    3b58:	e5933184 	ldr	r3, [r3, #388]	; 0x184
    3b5c:	e3730001 	cmn	r3, #1
    3b60:	030d3a3c 	movweq	r3, #55868	; 0xda3c
    3b64:	03403010 	movteq	r3, #16
    3b68:	05830184 	streq	r0, [r3, #388]	; 0x184
    3b6c:	e12fff1e 	bx	lr

00003b70 <timeStepRBForceApplication>:
    }

}

void timeStepRBForceApplication() {
    3b70:	e92d4ff0 	push	{r4, r5, r6, r7, r8, r9, r10, r11, lr}
    3b74:	e24dd014 	sub	sp, sp, #20
    3b78:	e30d3a3c 	movw	r3, #55868	; 0xda3c
    3b7c:	e3403010 	movt	r3, #16
    3b80:	e2838f62 	add	r8, r3, #392	; 0x188
    3b84:	e283bf72 	add	r11, r3, #456	; 0x1c8

    // model collisions with normal forces.
    for (int i = 0; i < NUM_BODIES; i++) {
    3b88:	e3a09000 	mov	r9, #0
        
        for (int j = 0; j < NUM_BODIES; j++) bookMarkedCollisions[i][j] = false;
    3b8c:	e1a06009 	mov	r6, r9

        if (i != currentMouseInteractionObj) {
    3b90:	e58d3008 	str	r3, [sp, #8]
        if(currentMouseInteractionObj == -1) currentMouseInteractionObj = i;   
    }

}

void timeStepRBForceApplication() {
    3b94:	e58db00c 	str	r11, [sp, #12]
    3b98:	ea000033 	b	3c6c <timeStepRBForceApplication+0xfc>
    3b9c:	e58db004 	str	r11, [sp, #4]
        
        for (int j = 0; j < NUM_BODIES; j++) bookMarkedCollisions[i][j] = false;

        if (i != currentMouseInteractionObj) {

            allBodies[i].a.x = 0;
    3ba0:	e3a02000 	mov	r2, #0
    3ba4:	e58b2058 	str	r2, [r11, #88]	; 0x58
            allBodies[i].a.y = G_RB;
    3ba8:	e30f35c3 	movw	r3, #62915	; 0xf5c3
    3bac:	e344311c 	movt	r3, #16668	; 0x411c
    3bb0:	e58b305c 	str	r3, [r11, #92]	; 0x5c
        if(currentMouseInteractionObj == -1) currentMouseInteractionObj = i;   
    }

}

void timeStepRBForceApplication() {
    3bb4:	e3a02f65 	mov	r2, #404	; 0x194
    3bb8:	e59d300c 	ldr	r3, [sp, #12]
    3bbc:	e0243992 	mla	r4, r2, r9, r3

            allBodies[i].a.x = 0;
            allBodies[i].a.y = G_RB;
            
            float torque = 0;
            for (int j = 0; j < MAX_EXTERNAL_FORCES; j++) {
    3bc0:	e1a05006 	mov	r5, r6
        if (i != currentMouseInteractionObj) {

            allBodies[i].a.x = 0;
            allBodies[i].a.y = G_RB;
            
            float torque = 0;
    3bc4:	e3a07000 	mov	r7, #0
            for (int j = 0; j < MAX_EXTERNAL_FORCES; j++) {
                if (!allBodies[i].extForces[j].isActive) continue;
    3bc8:	e5d430b0 	ldrb	r3, [r4, #176]	; 0xb0
    3bcc:	e3530000 	cmp	r3, #0
    3bd0:	0a00000e 	beq	3c10 <timeStepRBForceApplication+0xa0>
                allBodies[i].extForces[j].isActive = false;
    3bd4:	e5c460b0 	strb	r6, [r4, #176]	; 0xb0
                // if (j >= VERTICIES_PER_BODY) {
                //     allBodies[i].a.x += allBodies[i].extForces[j].force.x / allBodies[i].mass;
                //     allBodies[i].a.y += allBodies[i].extForces[j].force.y / allBodies[i].mass;
                // }
                torque += allBodies[i].extForces[j].r.x * allBodies[i].extForces[j].force.y - allBodies[i].extForces[j].r.y * allBodies[i].extForces[j].force.x;
    3bd8:	e59400a0 	ldr	r0, [r4, #160]	; 0xa0
    3bdc:	e59410ac 	ldr	r1, [r4, #172]	; 0xac
    3be0:	eb001432 	bl	8cb0 <__aeabi_fmul>
    3be4:	e1a0a000 	mov	r10, r0
    3be8:	e59400a4 	ldr	r0, [r4, #164]	; 0xa4
    3bec:	e59410a8 	ldr	r1, [r4, #168]	; 0xa8
    3bf0:	eb00142e 	bl	8cb0 <__aeabi_fmul>
    3bf4:	e1a01000 	mov	r1, r0
    3bf8:	e1a0000a 	mov	r0, r10
    3bfc:	eb001382 	bl	8a0c <__aeabi_fsub>
    3c00:	e1a01000 	mov	r1, r0
    3c04:	e1a00007 	mov	r0, r7
    3c08:	eb001380 	bl	8a10 <__addsf3>
    3c0c:	e1a07000 	mov	r7, r0

            allBodies[i].a.x = 0;
            allBodies[i].a.y = G_RB;
            
            float torque = 0;
            for (int j = 0; j < MAX_EXTERNAL_FORCES; j++) {
    3c10:	e2855001 	add	r5, r5, #1
    3c14:	e2844014 	add	r4, r4, #20
    3c18:	e355000c 	cmp	r5, #12
    3c1c:	1affffe9 	bne	3bc8 <timeStepRBForceApplication+0x58>
                //     allBodies[i].a.y += allBodies[i].extForces[j].force.y / allBodies[i].mass;
                // }
                torque += allBodies[i].extForces[j].r.x * allBodies[i].extForces[j].force.y - allBodies[i].extForces[j].r.y * allBodies[i].extForces[j].force.x;
            }
            
            allBodies[i].alpha = torque / allBodies[i].I;
    3c20:	e1a00007 	mov	r0, r7
    3c24:	e59d2004 	ldr	r2, [sp, #4]
    3c28:	e5921078 	ldr	r1, [r2, #120]	; 0x78
    3c2c:	eb001485 	bl	8e48 <__aeabi_fdiv>
    3c30:	e59d3004 	ldr	r3, [sp, #4]
    3c34:	e5830098 	str	r0, [r3, #152]	; 0x98
            checkMouseLocation(i);
    3c38:	e1a00009 	mov	r0, r9
    3c3c:	ebffff9a 	bl	3aac <checkMouseLocation>
            checkCollisions(i);
    3c40:	e1a00009 	mov	r0, r9
    3c44:	ebffff01 	bl	3850 <checkCollisions>
            stepBodyVelocities(i);
    3c48:	e1a00009 	mov	r0, r9
    3c4c:	ebfffea6 	bl	36ec <stepBodyVelocities>

        } 

        stepBodyPositions(i);
    3c50:	e1a00009 	mov	r0, r9
    3c54:	ebfffd73 	bl	3228 <stepBodyPositions>
}

void timeStepRBForceApplication() {

    // model collisions with normal forces.
    for (int i = 0; i < NUM_BODIES; i++) {
    3c58:	e2899001 	add	r9, r9, #1
    3c5c:	e2888008 	add	r8, r8, #8
    3c60:	e28bbf65 	add	r11, r11, #404	; 0x194
    3c64:	e3590008 	cmp	r9, #8
    3c68:	0a00000c 	beq	3ca0 <timeStepRBForceApplication+0x130>
        
        for (int j = 0; j < NUM_BODIES; j++) bookMarkedCollisions[i][j] = false;
    3c6c:	e5c86000 	strb	r6, [r8]
    3c70:	e5c86001 	strb	r6, [r8, #1]
    3c74:	e5c86002 	strb	r6, [r8, #2]
    3c78:	e5c86003 	strb	r6, [r8, #3]
    3c7c:	e5c86004 	strb	r6, [r8, #4]
    3c80:	e5c86005 	strb	r6, [r8, #5]
    3c84:	e5c86006 	strb	r6, [r8, #6]
    3c88:	e5c86007 	strb	r6, [r8, #7]

        if (i != currentMouseInteractionObj) {
    3c8c:	e59d2008 	ldr	r2, [sp, #8]
    3c90:	e5923184 	ldr	r3, [r2, #388]	; 0x184
    3c94:	e1590003 	cmp	r9, r3
    3c98:	1affffbf 	bne	3b9c <timeStepRBForceApplication+0x2c>
    3c9c:	eaffffeb 	b	3c50 <timeStepRBForceApplication+0xe0>

        stepBodyPositions(i);

    }

}
    3ca0:	e28dd014 	add	sp, sp, #20
    3ca4:	e8bd8ff0 	pop	{r4, r5, r6, r7, r8, r9, r10, r11, pc}

00003ca8 <buttonClickHandler>:
bool lastFluidSim = false;
bool errSt = false;
bool errStLast = false;

void buttonClickHandler() {
    isFluidSim = !isFluidSim;
    3ca8:	e30d3a3c 	movw	r3, #55868	; 0xda3c
    3cac:	e3403010 	movt	r3, #16
    3cb0:	e5d32f68 	ldrb	r2, [r3, #3944]	; 0xf68
    3cb4:	e2222001 	eor	r2, r2, #1
    3cb8:	e5c32f68 	strb	r2, [r3, #3944]	; 0xf68
    3cbc:	e12fff1e 	bx	lr

00003cc0 <__cs3_isr_irq>:
  *((volatile int*) 0xFFFEC100) = 1;

  *((volatile int*) 0xFFFED000) = 1;
}

void __attribute__ ((interrupt)) __cs3_isr_irq(void){
    3cc0:	e24ee004 	sub	lr, lr, #4
    3cc4:	e92d500f 	push	{r0, r1, r2, r3, r12, lr}
  int interruptID = *((volatile int*) 0xFFFEC10C);
    3cc8:	e3e03a13 	mvn	r3, #77824	; 0x13000
    3ccc:	e5133ef3 	ldr	r3, [r3, #-3827]	; 0xfffff10d

  if(interruptID != 79) while(1);
    3cd0:	e353004f 	cmp	r3, #79	; 0x4f
    3cd4:	0a000000 	beq	3cdc <__cs3_isr_irq+0x1c>
    3cd8:	eafffffe 	b	3cd8 <__cs3_isr_irq+0x18>
    //   prevmData = mData;
  updateMouse();
    3cdc:	ebfff23b 	bl	5d0 <updateMouse>
  if((mData.x >= BUTTON_X) && (mData.x < (BUTTON_X + 15)) && (mData.y >= BUTTON_Y) && (mData.y < (BUTTON_Y + 12))){
    3ce0:	e3093e4c 	movw	r3, #40524	; 0x9e4c
    3ce4:	e3403000 	movt	r3, #0
    3ce8:	e5933004 	ldr	r3, [r3, #4]
    3cec:	e2433f4b 	sub	r3, r3, #300	; 0x12c
    3cf0:	e2433001 	sub	r3, r3, #1
    3cf4:	e353000e 	cmp	r3, #14
    3cf8:	8a000011 	bhi	3d44 <__cs3_isr_irq+0x84>
    3cfc:	e3093e4c 	movw	r3, #40524	; 0x9e4c
    3d00:	e3403000 	movt	r3, #0
    3d04:	e5933008 	ldr	r3, [r3, #8]
    3d08:	e3530003 	cmp	r3, #3
    3d0c:	da00000c 	ble	3d44 <__cs3_isr_irq+0x84>
    3d10:	e353000f 	cmp	r3, #15
    3d14:	ca00000a 	bgt	3d44 <__cs3_isr_irq+0x84>
    if(!prevmData.left && mData.left){
    3d18:	e30d3a3c 	movw	r3, #55868	; 0xda3c
    3d1c:	e3403010 	movt	r3, #16
    3d20:	e5d33f74 	ldrb	r3, [r3, #3956]	; 0xf74
    3d24:	e3530000 	cmp	r3, #0
    3d28:	1a000005 	bne	3d44 <__cs3_isr_irq+0x84>
    3d2c:	e3093e4c 	movw	r3, #40524	; 0x9e4c
    3d30:	e3403000 	movt	r3, #0
    3d34:	e5d3300c 	ldrb	r3, [r3, #12]
    3d38:	e3530000 	cmp	r3, #0
    3d3c:	0a000000 	beq	3d44 <__cs3_isr_irq+0x84>
      buttonClickHandler();
    3d40:	ebffffd8 	bl	3ca8 <buttonClickHandler>
    }
  }

  *((volatile int*) 0xFFFEC110) = interruptID;
    3d44:	e3a0204f 	mov	r2, #79	; 0x4f
    3d48:	e3e03a13 	mvn	r3, #77824	; 0x13000
    3d4c:	e5032eef 	str	r2, [r3, #-3823]	; 0xfffff111
    3d50:	e8fd900f 	ldm	sp!, {r0, r1, r2, r3, r12, pc}^

00003d54 <resetSimHandler>:
bool errStLast = false;

void buttonClickHandler() {
    isFluidSim = !isFluidSim;
}
void resetSimHandler() {
    3d54:	e92d4008 	push	{r3, lr}
    if (isFluidSim) {
    3d58:	e30d3a3c 	movw	r3, #55868	; 0xda3c
    3d5c:	e3403010 	movt	r3, #16
    3d60:	e5d33f68 	ldrb	r3, [r3, #3944]	; 0xf68
    3d64:	e3530000 	cmp	r3, #0
    3d68:	0a000002 	beq	3d78 <resetSimHandler+0x24>
        eraseParticles();
    3d6c:	ebfff3c4 	bl	c84 <eraseParticles>
        initParticles(); 
    3d70:	ebfff32f 	bl	a34 <initParticles>
    3d74:	e8bd8008 	pop	{r3, pc}
    }
    else {
        eraseBodies();
    3d78:	ebfffcc4 	bl	3090 <eraseBodies>
        initRigidBodies();
    3d7c:	ebfffb6e 	bl	2b3c <initRigidBodies>
    3d80:	e8bd8008 	pop	{r3, pc}

00003d84 <main>:
    }        
}

int main(void){ // main for this simulation
    3d84:	e92d45f8 	push	{r3, r4, r5, r6, r7, r8, r10, lr}

    volatile int * sw_ptr = (volatile int *)SW_BASE;

    initParticles();
    3d88:	ebfff329 	bl	a34 <initParticles>
    initRigidBodies();
    3d8c:	ebfffb6a 	bl	2b3c <initRigidBodies>

    intializeMouse(&mData);
    3d90:	e59f40f8 	ldr	r4, [pc, #248]	; 3e90 <main+0x10c>
    3d94:	e1a00004 	mov	r0, r4
    3d98:	ebfff2ba 	bl	888 <intializeMouse>
    prevmData = mData;
    3d9c:	e59f30f0 	ldr	r3, [pc, #240]	; 3e94 <main+0x110>
    3da0:	e8940007 	ldm	r4, {r0, r1, r2}
    3da4:	e8830007 	stm	r3, {r0, r1, r2}

    vgaSetup();
    3da8:	ebfff1a7 	bl	44c <vgaSetup>

    // Program loop
    while(1) {
        
        errSt = (*sw_ptr & 1) == 1;
    3dac:	e3a07000 	mov	r7, #0
    3db0:	e34f7f20 	movt	r7, #65312	; 0xff20
    3db4:	e30d4a3c 	movw	r4, #55868	; 0xda3c
    3db8:	e3404010 	movt	r4, #16
        lastFluidSim = isFluidSim;
        // Erase Stuff
        if (isFluidSim) eraseParticles();
        else eraseBodies();

        drawMouse(&prevmData, BLACK);
    3dbc:	e2845ef6 	add	r5, r4, #3936	; 0xf60
    3dc0:	e285500c 	add	r5, r5, #12
    3dc4:	e3a0a000 	mov	r10, #0
        // Draw Stuff
        if (isFluidSim) drawParticles();
        else drawBodies();

        drawButton();
        drawMouse(&mData, WHITE);
    3dc8:	e59f60c0 	ldr	r6, [pc, #192]	; 3e90 <main+0x10c>
